(dp0
S'CSND'
p1
(lp2
S'b0337'
p3
asS'ADNt2pp'
p4
(lp5
S'b2964'
p6
aS'b2393'
p7
asS'GTPDPDP'
p8
(lp9
S'b3779'
p10
asS'EX_asn_L_LPAREN_e_RPAREN_'
p11
(lp12
S''
p13
asS'NTD10'
p14
(lp15
S'b2744'
p16
asS'NTD11'
p17
(lp18
S'b2744'
p19
asS'NTD12'
p20
(lp21
S'b2291'
p22
aS'b2744'
p23
asS'HACD3i'
p24
(lp25
S'b2341'
p26
aS'b3846'
p27
asS'XTSNH'
p28
(lp29
S'b0030'
p30
asS'DDPA'
p31
(lp32
S'b2601'
p33
aS'b1704'
p34
aS'b0754'
p35
asS'Htex'
p36
(lp37
S'b0241'
p38
aS'b0929'
p39
aS'b2215'
p40
aS'b1377'
p41
asS'P5CD'
p42
(lp43
S'b1014'
p44
asS'2DGULRy'
p45
(lp46
S'b3553'
p47
asS'2DGULRx'
p48
(lp49
S'b3553'
p50
asS'GAMptspp'
p51
(lp52
(lp53
S'b1817'
p54
aS'b1818'
p55
aS'b1819'
p56
aS'b2415'
p57
aS'b2416'
p58
aasS'ETHAAL'
p59
(lp60
(lp61
S'b2440'
p62
aS'b2441'
p63
aasS'P5CR'
p64
(lp65
S'b0386'
p66
asS'GLUTRR'
p67
(lp68
S'b1210'
p69
asS'GLUTRS'
p70
(lp71
S'b2400'
p72
asS'ULA4Ntppi'
p73
(lp74
g13
asS'GLCtexi'
p75
(lp76
S'b4036'
p77
asS'AGM4Pt2pp'
p78
(lp79
S'b0433'
p80
asS'EX_uacgam_LPAREN_e_RPAREN_'
p81
(lp82
g13
asS'KAS15'
p83
(lp84
S'b1091'
p85
asS'HBZOPT'
p86
(lp87
S'b4040'
p88
asS'LEUtex'
p89
(lp90
S'b2215'
p91
aS'b0241'
p92
aS'b1377'
p93
aS'b0929'
p94
asS'G5SADs'
p95
(lp96
S's0001'
p97
asS'ALAALAtex'
p98
(lp99
S'b2215'
p100
aS'b0241'
p101
aS'b1377'
p102
aS'b0929'
p103
asS'FMNAT'
p104
(lp105
S'b0025'
p106
asS'ORNtex'
p107
(lp108
S'b2215'
p109
aS'b0241'
p110
aS'b1377'
p111
aS'b0929'
p112
asS'2AGPG141tipp'
p113
(lp114
S'b2835'
p115
asS'RHAT1'
p116
(lp117
S'b3629'
p118
asS'OMMBLHX'
p119
(lp120
S'b0662'
p121
asS'OMPHHX'
p122
(lp123
S'b2907'
p124
asS'PANTS'
p125
(lp126
S'b0133'
p127
asS'E4PD'
p128
(lp129
S'b2927'
p130
asS'PLIPA2A180pp'
p131
(lp132
S'b3821'
p133
asS'TREHpp'
p134
(lp135
S'b1197'
p136
asS'G3PSabcpp'
p137
(lp138
(lp139
S'b3450'
p140
aS'b3451'
p141
aS'b3452'
p142
aS'b3453'
p143
aasS'42A12BOOXpp'
p144
(lp145
S'b1386'
p146
asS'ACOAD1f'
p147
(lp148
S'b0221'
p149
asS'ACLS'
p150
(lp151
(lp152
S'b3670'
p153
aS'b3671'
p154
aa(lp155
S'b0077'
p156
aS'b0078'
p157
aasS'PUNP5'
p158
(lp159
S'b2407'
p160
aS'b4384'
p161
asS'GLYCTO4'
p162
(lp163
(lp164
S'b2979'
p165
aS'b4467'
p166
aS'b4468'
p167
aasS'LPLIPAL2ATG120'
p168
(lp169
S'b3825'
p170
asS'GLYCTO3'
p171
(lp172
(lp173
S'b2979'
p174
aS'b4467'
p175
aS'b4468'
p176
aasS'GLYCTO2'
p177
(lp178
(lp179
S'b2979'
p180
aS'b4467'
p181
aS'b4468'
p182
aasS'O2Stex'
p183
(lp184
S'b2215'
p185
aS'b0241'
p186
aS'b1377'
p187
aS'b0929'
p188
asS'LYXt2pp'
p189
(lp190
S'b3907'
p191
asS'LPLIPAL1A180pp'
p192
(lp193
S'b0494'
p194
asS'2AGPEAT181'
p195
(lp196
S'b2836'
p197
asS'2AGPEAT180'
p198
(lp199
S'b2836'
p200
asS'EX_hacolipa_LPAREN_e_RPAREN_'
p201
(lp202
g13
asS'DAPAL'
p203
(lp204
S'b2871'
p205
asS'EX_but_LPAREN_e_RPAREN_'
p206
(lp207
g13
asS'ARBTNtex'
p208
(lp209
g13
asS'PAPA181pp'
p210
(lp211
S'b1278'
p212
asS'COBALT2abcpp'
p213
(lp214
S'b3469'
p215
asS'CYTBO3_4pp'
p216
(lp217
(lp218
S'b0429'
p219
aS'b0430'
p220
aS'b0431'
p221
aS'b0432'
p222
aasS'UMPtex'
p223
(lp224
S'b0241'
p225
aS'b0929'
p226
aS'b2215'
p227
aS'b1377'
p228
asS'GALCTt2rpp'
p229
(lp230
S'b3127'
p231
aS'b2789'
p232
asS'EX_rmn_LPAREN_e_RPAREN_'
p233
(lp234
g13
asS'LPLIPAL2G140'
p235
(lp236
S'b3825'
p237
asS'LPLIPAL2G141'
p238
(lp239
S'b3825'
p240
asS'PA160abcpp'
p241
(lp242
S'b0914'
p243
asS'ADSL2r'
p244
(lp245
S'b1131'
p246
asS'DSERt2pp'
p247
(lp248
S'b4208'
p249
asS'ACONIs'
p250
(lp251
S's0001'
p252
asS'UAGPT3'
p253
(lp254
S'b0090'
p255
asS'ASPTA'
p256
(lp257
S'b0928'
p258
asS'GART'
p259
(lp260
S'b1849'
p261
asS'CYSDDS'
p262
(lp263
S'b1919'
p264
asS'GAMAN6Ptex'
p265
(lp266
S'b2215'
p267
aS'b0241'
p268
aS'b1377'
p269
aS'b0929'
p270
asS'DHCIND'
p271
(lp272
S'b2541'
p273
asS'UDCPPtppi'
p274
(lp275
g13
asS'ASPO4'
p276
(lp277
S'b2574'
p278
asS'EAR121y'
p279
(lp280
S'b1288'
p281
asS'EAR121x'
p282
(lp283
S'b1288'
p284
asS'ALATRS'
p285
(lp286
S'b2697'
p287
asS'CTBTt2rpp'
p288
(lp289
S'b4111'
p290
asS'EX_tungs_LPAREN_e_RPAREN_'
p291
(lp292
g13
asS'EX_frulys_LPAREN_e_RPAREN_'
p293
(lp294
g13
asS'MDDCP2pp'
p295
(lp296
S'b2010'
p297
aS'b0632'
p298
aS'b0839'
p299
aS'b3182'
p300
asS'UDPACGALtex'
p301
(lp302
S'b2215'
p303
aS'b0241'
p304
aS'b1377'
p305
aS'b0929'
p306
asS'AOXSr'
p307
(lp308
S'b0776'
p309
asS'EX_hdcea_LPAREN_e_RPAREN_'
p310
(lp311
g13
asS'23DAPPAt2pp'
p312
(lp313
g13
asS'LEUTAi'
p314
(lp315
S'b3770'
p316
aS'b4054'
p317
asS'GTHOXtex'
p318
(lp319
S'b2215'
p320
aS'b0241'
p321
aS'b1377'
p322
aS'b0929'
p323
asS'EX_butso3_LPAREN_e_RPAREN_'
p324
(lp325
g13
asS'3AMPtex'
p326
(lp327
S'b2215'
p328
aS'b0241'
p329
aS'b1377'
p330
aS'b0929'
p331
asS'XANtex'
p332
(lp333
S'b2215'
p334
aS'b0241'
p335
aS'b1377'
p336
aS'b0929'
p337
asS'ACPS1'
p338
(lp339
S'b2563'
p340
aS'b3475'
p341
asS'EX_ump_LPAREN_e_RPAREN_'
p342
(lp343
g13
asS'FCLK'
p344
(lp345
S'b2803'
p346
asS'EX_3amp_LPAREN_e_RPAREN_'
p347
(lp348
g13
asS'IPPMIa'
p349
(lp350
(lp351
S'b0071'
p352
aS'b0072'
p353
aasS'EX_taur_LPAREN_e_RPAREN_'
p354
(lp355
g13
asS'2AGPG120tipp'
p356
(lp357
S'b2835'
p358
asS'EX_tcynt_LPAREN_e_RPAREN_'
p359
(lp360
g13
asS'CYNTt2pp'
p361
(lp362
S'b0341'
p363
asS'EX_so2_LPAREN_e_RPAREN_'
p364
(lp365
g13
asS'MOHMT'
p366
(lp367
S'b0134'
p368
asS'DHDPS'
p369
(lp370
S'b2478'
p371
asS'HCYSMT'
p372
(lp373
S'b0261'
p374
asS'CFAS180E'
p375
(lp376
S'b1661'
p377
asS'ALATA_D2'
p378
(lp379
S'b2551'
p380
aS'b0870'
p381
asS'NI2t3pp'
p382
(lp383
S'b3915'
p384
aS'b0752'
p385
asS'EDA'
p386
(lp387
S'b1850'
p388
asS'EDD'
p389
(lp390
S'b1851'
p391
asS'EX_arg_L_LPAREN_e_RPAREN_'
p392
(lp393
g13
asS'GTHOr'
p394
(lp395
S'b3500'
p396
asS'FRUK'
p397
(lp398
S'b2168'
p399
asS'GALBDtex'
p400
(lp401
S'b2215'
p402
aS'b0241'
p403
aS'b1377'
p404
aS'b0929'
p405
asS'EX_4hoxpacd_LPAREN_e_RPAREN_'
p406
(lp407
g13
asS'GTHRDHpp'
p408
(lp409
S'b3447'
p410
asS'PRPPS'
p411
(lp412
S'b1207'
p413
asS'23PDE9pp'
p414
(lp415
S'b4213'
p416
asS'MALTTTRabcpp'
p417
(lp418
(lp419
S'b4032'
p420
aS'b4033'
p421
aS'b4034'
p422
aS'b4035'
p423
aasS'SDPDS'
p424
(lp425
S'b2472'
p426
asS'MLTGY3pp'
p427
(lp428
S'b2701'
p429
aS'b2963'
p430
aS'b2813'
p431
aS'b4392'
p432
aS'b1193'
p433
asS'EX_14glucan_LPAREN_e_RPAREN_'
p434
(lp435
g13
asS'FTHFD'
p436
(lp437
S'b1232'
p438
asS'AGPAT120'
p439
(lp440
S'b3018'
p441
asS'XTSNtex'
p442
(lp443
S'b2215'
p444
aS'b0241'
p445
aS'b1377'
p446
aS'b0929'
p447
asS'VALabcpp'
p448
(lp449
(lp450
S'b3454'
p451
aS'b3455'
p452
aS'b3456'
p453
aS'b3457'
p454
aS'b3460'
p455
aasS'EX_acgam1p_LPAREN_e_RPAREN_'
p456
(lp457
g13
asS'THMtex'
p458
(lp459
S'b2215'
p460
aS'b0241'
p461
aS'b1377'
p462
aS'b0929'
p463
asS'GLUPRT'
p464
(lp465
S'b2312'
p466
asS'KAS14'
p467
(lp468
S'b2323'
p469
aS'b1095'
p470
asS'PGPP180pp'
p471
(lp472
S'b1278'
p473
aS'b0418'
p474
asS'TRPTRS'
p475
(lp476
S'b3384'
p477
asS'KDOPP'
p478
(lp479
S'b3198'
p480
asS'2AGPG181tipp'
p481
(lp482
S'b2835'
p483
asS'OCBT'
p484
(lp485
S'b4254'
p486
aS'b0273'
p487
asS'EX_ptrc_LPAREN_e_RPAREN_'
p488
(lp489
g13
asS'DHORD2'
p490
(lp491
S'b0945'
p492
asS'DHORD5'
p493
(lp494
S'b0945'
p495
asS'CPGNexs'
p496
(lp497
S's0001'
p498
asS'AGM4PH'
p499
(lp500
S'b1107'
p501
asS'EX_23cgmp_LPAREN_e_RPAREN_'
p502
(lp503
g13
asS'ARBTNexs'
p504
(lp505
S's0001'
p506
asS'AGM4PA'
p507
(lp508
S'b0110'
p509
asS'GMPS2'
p510
(lp511
S'b2507'
p512
asS'EX_ppa_LPAREN_e_RPAREN_'
p513
(lp514
g13
asS'MELIBt3ipp'
p515
(lp516
S'b1528'
p517
asS'D_LACt2pp'
p518
(lp519
S'b3603'
p520
aS'b2975'
p521
asS'HPYRI'
p522
(lp523
S'b0508'
p524
asS'ADEt2rpp'
p525
(lp526
S'b3654'
p527
asS'4PEPTabcpp'
p528
(lp529
(lp530
S'b1243'
p531
aS'b1244'
p532
aS'b1245'
p533
aS'b1246'
p534
aS'b1247'
p535
aasS'GALt2pp'
p536
(lp537
S'b2943'
p538
asS'LPLIPAL1E161pp'
p539
(lp540
S'b0494'
p541
asS'AGMH'
p542
(lp543
S'b1107'
p544
asS'AGMT'
p545
(lp546
S'b2937'
p547
asS'GALabcpp'
p548
(lp549
(lp550
S'b2148'
p551
aS'b2149'
p552
aS'b2150'
p553
aasS'TRPtex'
p554
(lp555
S'b2215'
p556
aS'b0241'
p557
aS'b1377'
p558
aS'b0929'
p559
asS'EX_anhgm_LPAREN_e_RPAREN_'
p560
(lp561
g13
asS'EX_gthrd_LPAREN_e_RPAREN_'
p562
(lp563
g13
asS'CRNtex'
p564
(lp565
S'b2215'
p566
aS'b0241'
p567
aS'b1377'
p568
aS'b0929'
p569
asS'HMPK1'
p570
(lp571
S'b2103'
p572
aS'b2418'
p573
asS'EX_galur_LPAREN_e_RPAREN_'
p574
(lp575
g13
asS'EX_dad_2_LPAREN_e_RPAREN_'
p576
(lp577
g13
asS'GLCURt2rpp'
p578
(lp579
S'b3909'
p580
aS'b3093'
p581
asS'SO4tex'
p582
(lp583
S'b2215'
p584
aS'b0241'
p585
aS'b1377'
p586
aS'b0929'
p587
asS'TAUDO'
p588
(lp589
S'b0368'
p590
asS'IDOND2'
p591
(lp592
S'b4267'
p593
asS'ACOAD2f'
p594
(lp595
S'b0221'
p596
asS'LYSTRS'
p597
(lp598
S'b2890'
p599
aS'b4129'
p600
asS'FE3Ri'
p601
(lp602
S'b3844'
p603
asS'DDGLK'
p604
(lp605
S'b3526'
p606
asS'EX_tre_LPAREN_e_RPAREN_'
p607
(lp608
g13
asS'ACONTa'
p609
(lp610
S'b1276'
p611
aS'b0118'
p612
asS'ACONTb'
p613
(lp614
S'b1276'
p615
aS'b0118'
p616
asS'DMSOR2'
p617
(lp618
(lp619
S'b0894'
p620
aS'b0895'
p621
aS'b0896'
p622
aasS'BUTCT'
p623
(lp624
(lp625
S'b2221'
p626
aS'b2222'
p627
aasS'ASNabcpp'
p628
(lp629
g13
asS'PLIPA1G160pp'
p630
(lp631
S'b3821'
p632
asS'DADNt2pp'
p633
(lp634
S'b2393'
p635
aS'b2964'
p636
asS'ARGtex'
p637
(lp638
S'b2215'
p639
aS'b0241'
p640
aS'b1377'
p641
aS'b0929'
p642
asS'MTRI'
p643
(lp644
g13
asS'MTRK'
p645
(lp646
g13
asS'EX_nh4_LPAREN_e_RPAREN_'
p647
(lp648
g13
asS'ASPt2pp'
p649
(lp650
S'b4077'
p651
asS'ADNK1'
p652
(lp653
S'b0474'
p654
asS'23CGMPtex'
p655
(lp656
S'b2215'
p657
aS'b0241'
p658
aS'b1377'
p659
aS'b0929'
p660
asS'CLtex'
p661
(lp662
S'b2215'
p663
aS'b0241'
p664
aS'b1377'
p665
aS'b0929'
p666
asS'EX_lys_L_LPAREN_e_RPAREN_'
p667
(lp668
g13
asS'CRNCAR'
p669
(lp670
S'b0036'
p671
asS'EX_g3pg_LPAREN_e_RPAREN_'
p672
(lp673
g13
asS'MDDEP2pp'
p674
(lp675
S'b3182'
p676
aS'b2134'
p677
aS'b2328'
p678
asS'DXPS'
p679
(lp680
S'b0420'
p681
asS'ACSERtex'
p682
(lp683
S'b2215'
p684
aS'b0241'
p685
aS'b1377'
p686
aS'b0929'
p687
asS'EX_mmet_LPAREN_e_RPAREN_'
p688
(lp689
g13
asS'FORt2pp'
p690
(lp691
S'b0904'
p692
aS'b2492'
p693
asS'PLIPA2E120pp'
p694
(lp695
S'b3821'
p696
asS'EX_malttr_LPAREN_e_RPAREN_'
p697
(lp698
g13
asS'CTBTCAL2'
p699
(lp700
S'b0037'
p701
asS'SUCRtex'
p702
(lp703
S'b2215'
p704
aS'b0241'
p705
aS'b1377'
p706
aS'b0929'
p707
asS'EAR120x'
p708
(lp709
S'b1288'
p710
asS'O16A4Lpp'
p711
(lp712
S'b3622'
p713
asS'UPP3MT'
p714
(lp715
S'b3803'
p716
aS'b3368'
p717
asS'METSOX2tex'
p718
(lp719
S'b2215'
p720
aS'b0241'
p721
aS'b1377'
p722
aS'b0929'
p723
asS'MLTP1'
p724
(lp725
S'b3417'
p726
asS'MLTP2'
p727
(lp728
S'b3417'
p729
asS'MLTP3'
p730
(lp731
S'b3417'
p732
asS'UDPG4E'
p733
(lp734
S'b0759'
p735
asS'26DAHtex'
p736
(lp737
S'b1377'
p738
aS'b2215'
p739
aS'b0929'
p740
aS'b0241'
p741
asS'EX_23ccmp_LPAREN_e_RPAREN_'
p742
(lp743
g13
asS'HDCOAI'
p744
(lp745
S'b3846'
p746
asS'AM3PA'
p747
(lp748
S'b0110'
p749
asS'ACMANAtex'
p750
(lp751
S'b2215'
p752
aS'b0241'
p753
aS'b1377'
p754
aS'b0929'
p755
asS'FACOAL181t2pp'
p756
(lp757
S'b1805'
p758
aS'b1701'
p759
asS'NOtex'
p760
(lp761
S'b2215'
p762
aS'b0241'
p763
aS'b1377'
p764
aS'b0929'
p765
asS'LPLIPAL2E160'
p766
(lp767
S'b3825'
p768
asS'LPLIPAL2E161'
p769
(lp770
S'b3825'
p771
asS'SHCHF'
p772
(lp773
S'b3368'
p774
asS'EX_mobd_LPAREN_e_RPAREN_'
p775
(lp776
g13
asS'THRt2rpp'
p777
(lp778
S'b3116'
p779
asS'UM4PCP'
p780
(lp781
S'b1192'
p782
asS'GTHS'
p783
(lp784
S'b2947'
p785
asS'OROTt2_2pp'
p786
(lp787
S'b3528'
p788
asS'ECAP3pp'
p789
(lp790
(lp791
S'b3785'
p792
aS'b3793'
p793
aasS'UPP3S'
p794
(lp795
S'b3804'
p796
asS'GLUN'
p797
(lp798
S'b1812'
p799
aS'b1524'
p800
aS'b0485'
p801
asS'EX_lipa_LPAREN_e_RPAREN_'
p802
(lp803
g13
asS'ETHSO3abcpp'
p804
(lp805
(lp806
S'b0933'
p807
aS'b0934'
p808
aS'b0936'
p809
aasS'DGSNtex'
p810
(lp811
S'b2215'
p812
aS'b0241'
p813
aS'b1377'
p814
aS'b0929'
p815
asS'12DGR160tipp'
p816
(lp817
g13
asS'PSP_L'
p818
(lp819
S'b4388'
p820
asS'IGPS'
p821
(lp822
S'b1262'
p823
asS'VALTRS'
p824
(lp825
S'b4258'
p826
asS'PYDXK'
p827
(lp828
S'b2418'
p829
aS'b1636'
p830
asS'PGPP161pp'
p831
(lp832
S'b1278'
p833
aS'b0418'
p834
asS'LDH_D2'
p835
(lp836
S'b2133'
p837
asS'12DGR161tipp'
p838
(lp839
g13
asS'UDPGtex'
p840
(lp841
S'b0929'
p842
aS'b1377'
p843
aS'b0241'
p844
aS'b2215'
p845
asS'RMK'
p846
(lp847
S'b3904'
p848
asS'RMI'
p849
(lp850
S'b3903'
p851
asS'G3PEabcpp'
p852
(lp853
(lp854
S'b3450'
p855
aS'b3451'
p856
aS'b3452'
p857
aS'b3453'
p858
aasS'MCITL2'
p859
(lp860
S'b0331'
p861
asS'NO3R2pp'
p862
(lp863
(lp864
S'b1224'
p865
aS'b1225'
p866
aS'b1226'
p867
aS'b1227'
p868
aa(lp869
S'b1465'
p870
aS'b1466'
p871
aS'b1467'
p872
aS'b1468'
p873
aasS'FFSD'
p874
(lp875
g13
asS'EX_glyc_LPAREN_e_RPAREN_'
p876
(lp877
g13
asS'3OAS100'
p878
(lp879
S'b2323'
p880
aS'b1095'
p881
asS'CYSDS'
p882
(lp883
S'b3708'
p884
aS'b3008'
p885
asS'23DAPPAtex'
p886
(lp887
S'b2215'
p888
aS'b0241'
p889
aS'b1377'
p890
aS'b0929'
p891
asS'GLYCtex'
p892
(lp893
S'b2215'
p894
aS'b0241'
p895
aS'b1377'
p896
aS'b0929'
p897
asS'EX_ni2_LPAREN_e_RPAREN_'
p898
(lp899
g13
asS'PLIPA1G120pp'
p900
(lp901
S'b3821'
p902
asS'INDOLEt2pp'
p903
(lp904
(lp905
S'b3265'
p906
aS'b3266'
p907
aasS'DMSOtex'
p908
(lp909
S'b1377'
p910
aS'b2215'
p911
aS'b0929'
p912
aS'b0241'
p913
asS'2MAHMP'
p914
(lp915
S'b0446'
p916
aS'b1134'
p917
asS'FEENTERtonex'
p918
(lp919
(lp920
S'b0584'
p921
aS'b1252'
p922
aS'b3005'
p923
aS'b3006'
p924
aasS'MANGLYCtex'
p925
(lp926
S'b2215'
p927
aS'b0241'
p928
aS'b1377'
p929
aS'b0929'
p930
asS'EX_34dhpac_LPAREN_e_RPAREN_'
p931
(lp932
g13
asS'GLCt2pp'
p933
(lp934
S'b2943'
p935
asS'12PPDStex'
p936
(lp937
S'b2215'
p938
aS'b0241'
p939
aS'b1377'
p940
aS'b0929'
p941
asS'AMAOTr'
p942
(lp943
S'b0774'
p944
asS'GALURtex'
p945
(lp946
S'b2215'
p947
aS'b0241'
p948
aS'b1377'
p949
aS'b0929'
p950
asS'PPCSCT'
p951
(lp952
S'b2920'
p953
asS'ASPt2_2pp'
p954
(lp955
S'b3528'
p956
asS'23CAMPtex'
p957
(lp958
S'b2215'
p959
aS'b0241'
p960
aS'b1377'
p961
aS'b0929'
p962
asS'POX'
p963
(lp964
S'b0871'
p965
asS'EX_n2o_LPAREN_e_RPAREN_'
p966
(lp967
g13
asS'VPAMT'
p968
(lp969
S'b3572'
p970
asS'G3PAT141'
p971
(lp972
S'b4041'
p973
asS'MALTTRabcpp'
p974
(lp975
(lp976
S'b4032'
p977
aS'b4033'
p978
aS'b4034'
p979
aS'b4035'
p980
aasS'EX_tsul_LPAREN_e_RPAREN_'
p981
(lp982
g13
asS'PA141abcpp'
p983
(lp984
S'b0914'
p985
asS'DGMPtex'
p986
(lp987
S'b2215'
p988
aS'b0241'
p989
aS'b1377'
p990
aS'b0929'
p991
asS'EX_gthox_LPAREN_e_RPAREN_'
p992
(lp993
g13
asS'MMCD'
p994
(lp995
S'b2919'
p996
asS'HPPK2'
p997
(lp998
S'b0142'
p999
asS'D_LACtex'
p1000
(lp1001
S'b2215'
p1002
aS'b0241'
p1003
aS'b1377'
p1004
aS'b0929'
p1005
asS'ACACT1r'
p1006
(lp1007
S'b2224'
p1008
asS'DTMPK'
p1009
(lp1010
S'b1098'
p1011
asS'PFK_2'
p1012
(lp1013
S'b3916'
p1014
asS'F6Ptex'
p1015
(lp1016
S'b2215'
p1017
aS'b0241'
p1018
aS'b1377'
p1019
aS'b0929'
p1020
asS'FE3HOXUtpp'
p1021
(lp1022
g13
asS'EX_tyr_L_LPAREN_e_RPAREN_'
p1023
(lp1024
g13
asS'GSNt2pp'
p1025
(lp1026
S'b2964'
p1027
asS'FACOAL140t2pp'
p1028
(lp1029
S'b1701'
p1030
aS'b1805'
p1031
asS'EAR100y'
p1032
(lp1033
S'b1288'
p1034
asS'PSD140'
p1035
(lp1036
S'b4160'
p1037
asS'PSD141'
p1038
(lp1039
S'b4160'
p1040
asS'GLYK'
p1041
(lp1042
S'b3926'
p1043
asS'2AGPE181tipp'
p1044
(lp1045
S'b2835'
p1046
asS'MECDPDH2'
p1047
(lp1048
S'b2515'
p1049
asS'GUAtex'
p1050
(lp1051
S'b0411'
p1052
asS'EX_fecrm_LPAREN_e_RPAREN_'
p1053
(lp1054
g13
asS'MLDCP3App'
p1055
(lp1056
g13
asS'HDCEAtexi'
p1057
(lp1058
S'b2344'
p1059
asS'DKMPPD'
p1060
(lp1061
g13
asS'DATPHs'
p1062
(lp1063
S's0001'
p1064
asS'PGSA160'
p1065
(lp1066
S'b1912'
p1067
asS'UPPDC1'
p1068
(lp1069
S'b3997'
p1070
asS'MANptspp'
p1071
(lp1072
(lp1073
S'b1817'
p1074
aS'b1818'
p1075
aS'b1819'
p1076
aS'b2415'
p1077
aS'b2416'
p1078
aasS'EX_glyc2p_LPAREN_e_RPAREN_'
p1079
(lp1080
g13
asS'3HAD161'
p1081
(lp1082
S'b0180'
p1083
aS'b0954'
p1084
asS'DHQTi'
p1085
(lp1086
S'b1693'
p1087
asS'PERD'
p1088
(lp1089
S'b2320'
p1090
asS'THRD'
p1091
(lp1092
S'b3616'
p1093
asS'RBFSb'
p1094
(lp1095
S'b0415'
p1096
asS'GSNtex'
p1097
(lp1098
S'b2215'
p1099
aS'b0241'
p1100
aS'b1377'
p1101
aS'b0929'
p1102
asS'RBFSa'
p1103
(lp1104
S'b1662'
p1105
asS'GLDBRAN2'
p1106
(lp1107
S'b3431'
p1108
asS'EX_met_D_LPAREN_e_RPAREN_'
p1109
(lp1110
g13
asS'LEUt2rpp'
p1111
(lp1112
S'b0401'
p1113
asS'THRS'
p1114
(lp1115
S'b0004'
p1116
asS'DDGLCNt2rpp'
p1117
(lp1118
S'b3909'
p1119
asS'BALAt2pp'
p1120
(lp1121
S'b4208'
p1122
asS'QULNS'
p1123
(lp1124
S'b0750'
p1125
asS'ASNS2'
p1126
(lp1127
S'b3744'
p1128
asS'ASNS1'
p1129
(lp1130
S'b0674'
p1131
asS'EX_fe3hox_LPAREN_e_RPAREN_'
p1132
(lp1133
g13
asS'LPLIPAL1E120pp'
p1134
(lp1135
S'b0494'
p1136
asS'EX_ala_L_LPAREN_e_RPAREN_'
p1137
(lp1138
g13
asS'KAT8'
p1139
(lp1140
S'b3845'
p1141
aS'b2342'
p1142
asS'LCTStpp'
p1143
(lp1144
S'b0343'
p1145
asS'THYMtex'
p1146
(lp1147
S'b2215'
p1148
aS'b0929'
p1149
aS'b1377'
p1150
aS'b0241'
p1151
asS'GLYBtex'
p1152
(lp1153
S'b2215'
p1154
aS'b0241'
p1155
aS'b1377'
p1156
aS'b0929'
p1157
asS'KAT1'
p1158
(lp1159
S'b3845'
p1160
aS'b2342'
p1161
asS'KAT2'
p1162
(lp1163
S'b2342'
p1164
aS'b3845'
p1165
asS'KAT3'
p1166
(lp1167
S'b2342'
p1168
aS'b3845'
p1169
asS'KAT4'
p1170
(lp1171
S'b2342'
p1172
aS'b3845'
p1173
asS'KAT5'
p1174
(lp1175
S'b3845'
p1176
aS'b2342'
p1177
asS'FACOAL120t2pp'
p1178
(lp1179
S'b1701'
p1180
aS'b1805'
p1181
asS'KAT7'
p1182
(lp1183
S'b3845'
p1184
aS'b2342'
p1185
asS'Kt2pp'
p1186
(lp1187
S'b3747'
p1188
aS'b1250'
p1189
a(lp1190
S'b1291'
p1191
aS'b3290'
p1192
aS'b3849'
p1193
aa(lp1194
S'b1291'
p1195
aS'b1363'
p1196
aS'b3290'
p1197
aasS'NADPPPS'
p1198
(lp1199
g13
asS'EX_acolipa_LPAREN_e_RPAREN_'
p1200
(lp1201
g13
asS'HCINNMt2rpp'
p1202
(lp1203
S'b0353'
p1204
asS'FECRMabcpp'
p1205
(lp1206
(lp1207
S'b0151'
p1208
aS'b0152'
p1209
aS'b0153'
p1210
aasS'ACGAM1PPpp'
p1211
(lp1212
g13
asS'GLNS'
p1213
(lp1214
S'b3870'
p1215
aS'b1297'
p1216
asS'DCYTtex'
p1217
(lp1218
S'b0411'
p1219
asS'ASNTRS'
p1220
(lp1221
S'b0930'
p1222
asS'CPGNUtex'
p1223
(lp1224
g13
asS'PE160abcpp'
p1225
(lp1226
S'b0914'
p1227
asS'PGSA181'
p1228
(lp1229
S'b1912'
p1230
asS'PGSA180'
p1231
(lp1232
S'b1912'
p1233
asS'GLCNtex'
p1234
(lp1235
S'b2215'
p1236
aS'b0241'
p1237
aS'b1377'
p1238
aS'b0929'
p1239
asS'UDPGALM'
p1240
(lp1241
S'b2036'
p1242
asS'3HPPPNH'
p1243
(lp1244
S'b0347'
p1245
asS'O16A4COLIPAtex'
p1246
(lp1247
g13
asS'FE2tex'
p1248
(lp1249
S'b0929'
p1250
aS'b1377'
p1251
aS'b0241'
p1252
aS'b2215'
p1253
asS'MTRPOX'
p1254
(lp1255
S'b1059'
p1256
asS'2AGPE120tipp'
p1257
(lp1258
S'b2835'
p1259
asS'TARTRt7pp'
p1260
(lp1261
S'b3063'
p1262
asS'2AGPA161tipp'
p1263
(lp1264
S'b2835'
p1265
asS'EX_fe3_LPAREN_e_RPAREN_'
p1266
(lp1267
g13
asS'CLPNH141pp'
p1268
(lp1269
g13
asS'HACD4i'
p1270
(lp1271
S'b2341'
p1272
aS'b3846'
p1273
asS'GLNTRS'
p1274
(lp1275
S'b0680'
p1276
asS'UMPK'
p1277
(lp1278
S'b0910'
p1279
aS'b0171'
p1280
asS'G1PPpp'
p1281
(lp1282
S'b1002'
p1283
asS'ICHORSi'
p1284
(lp1285
S'b0593'
p1286
asS'PPALtpp'
p1287
(lp1288
g13
asS'AMPTASEPG'
p1289
(lp1290
S'b0237'
p1291
aS'b0932'
p1292
aS'b4260'
p1293
aS'b2523'
p1294
asS'DMPPS'
p1295
(lp1296
S'b0029'
p1297
asS'GLYBt2pp'
p1298
(lp1299
S'b1801'
p1300
asS'NTD3pp'
p1301
(lp1302
S'b4055'
p1303
aS'b0480'
p1304
asS'ACOAD3f'
p1305
(lp1306
S'b0221'
p1307
asS'12PPDRtex'
p1308
(lp1309
S'b2215'
p1310
aS'b0241'
p1311
aS'b1377'
p1312
aS'b0929'
p1313
asS'MLDCP2Bpp'
p1314
(lp1315
g13
asS'CRNDabcpp'
p1316
(lp1317
(lp1318
S'b2677'
p1319
aS'b2678'
p1320
aS'b2679'
p1321
aasS'LACZpp'
p1322
(lp1323
S'b2132'
p1324
asS'UAGCVT'
p1325
(lp1326
S'b3189'
p1327
asS'NTD2pp'
p1328
(lp1329
S'b0480'
p1330
aS'b4055'
p1331
asS'ACHBS'
p1332
(lp1333
(lp1334
S'b3670'
p1335
aS'b3671'
p1336
aa(lp1337
S'b0077'
p1338
aS'b0078'
p1339
aasS'GLUNpp'
p1340
(lp1341
S'b2957'
p1342
asS'DALAtex'
p1343
(lp1344
S'b2215'
p1345
aS'b0241'
p1346
aS'b1377'
p1347
aS'b0929'
p1348
asS'ALLPI'
p1349
(lp1350
S'b4090'
p1351
asS'CTPS2'
p1352
(lp1353
S'b2780'
p1354
asS'URIt2pp'
p1355
(lp1356
S'b2964'
p1357
aS'b2393'
p1358
asS'GTHRDabcpp'
p1359
(lp1360
(lp1361
S'b0829'
p1362
aS'b0830'
p1363
aS'b0831'
p1364
aS'b0832'
p1365
aasS'PGPP181'
p1366
(lp1367
S'b1278'
p1368
aS'b0418'
p1369
asS'PGPP180'
p1370
(lp1371
S'b1278'
p1372
aS'b0418'
p1373
asS'FE3DHBZR'
p1374
(lp1375
g13
asS'GALTptspp'
p1376
(lp1377
(lp1378
S'b2092'
p1379
aS'b2093'
p1380
aS'b2094'
p1381
aS'b2415'
p1382
aS'b2416'
p1383
aasS'PHEt2rpp'
p1384
(lp1385
S'b0112'
p1386
aS'b0576'
p1387
asS'CPGNtonex'
p1388
(lp1389
(lp1390
S'b1102'
p1391
aS'b1252'
p1392
aS'b3005'
p1393
aS'b3006'
p1394
aasS'FE3tex'
p1395
(lp1396
S'b2215'
p1397
aS'b0241'
p1398
aS'b1377'
p1399
aS'b0929'
p1400
asS'EX_alltn_LPAREN_e_RPAREN_'
p1401
(lp1402
g13
asS'EX_minohp_LPAREN_e_RPAREN_'
p1403
(lp1404
g13
asS'ACGAptspp'
p1405
(lp1406
(lp1407
S'b1101'
p1408
aS'b2415'
p1409
aS'b2416'
p1410
aS'b2417'
p1411
aa(lp1412
S'b0679'
p1413
aS'b2415'
p1414
aS'b2416'
p1415
aasS'CS'
p1416
(lp1417
S'b0720'
p1418
asS'GLYCtpp'
p1419
(lp1420
S's0001'
p1421
aS'b3927'
p1422
asS'SFGTHi'
p1423
(lp1424
S'b2154'
p1425
aS'b0355'
p1426
asS'ALAtex'
p1427
(lp1428
S'b2215'
p1429
aS'b0241'
p1430
aS'b1377'
p1431
aS'b0929'
p1432
asS'Zn2tex'
p1433
(lp1434
S'b2215'
p1435
aS'b0241'
p1436
aS'b1377'
p1437
aS'b0929'
p1438
asS'GP4GH'
p1439
(lp1440
S'b0049'
p1441
asS'EX_zn2_LPAREN_e_RPAREN_'
p1442
(lp1443
g13
asS'HCINNMtex'
p1444
(lp1445
S'b2215'
p1446
aS'b0241'
p1447
aS'b1377'
p1448
aS'b0929'
p1449
asS'NMNN'
p1450
(lp1451
g13
asS'CPPPGO2'
p1452
(lp1453
S'b3867'
p1454
asS'TDSK'
p1455
(lp1456
S'b0915'
p1457
asS'FHL'
p1458
(lp1459
(lp1460
S'b2481'
p1461
aS'b2482'
p1462
aS'b2483'
p1463
aS'b2484'
p1464
aS'b2485'
p1465
aS'b2486'
p1466
aS'b2487'
p1467
aS'b2488'
p1468
aS'b2489'
p1469
aS'b2490'
p1470
aS'b4079'
p1471
aa(lp1472
S'b2719'
p1473
aS'b2720'
p1474
aS'b2721'
p1475
aS'b2722'
p1476
aS'b2723'
p1477
aS'b2724'
p1478
aS'b4079'
p1479
aasS'CD2tpp'
p1480
(lp1481
S'b3040'
p1482
asS'FE3HOXabcpp'
p1483
(lp1484
(lp1485
S'b0151'
p1486
aS'b0152'
p1487
aS'b0153'
p1488
aasS'RBFK'
p1489
(lp1490
S'b0025'
p1491
asS'METOX1s'
p1492
(lp1493
S's0001'
p1494
asS'ACMUMptspp'
p1495
(lp1496
(lp1497
S'b2415'
p1498
aS'b2416'
p1499
aS'b2417'
p1500
aS'b2429'
p1501
aasS'FEOXAMUtpp'
p1502
(lp1503
g13
asS'DURIK1'
p1504
(lp1505
S'b1238'
p1506
asS'ACGAL1Ptex'
p1507
(lp1508
S'b2215'
p1509
aS'b0241'
p1510
aS'b1377'
p1511
aS'b0929'
p1512
asS'TSULtex'
p1513
(lp1514
S'b2215'
p1515
aS'b0241'
p1516
aS'b1377'
p1517
aS'b0929'
p1518
asS'3NTD9pp'
p1519
(lp1520
S'b4213'
p1521
asS'GALCTD'
p1522
(lp1523
S'b3128'
p1524
asS'FE3HOXR1'
p1525
(lp1526
g13
asS'TARTD'
p1527
(lp1528
(lp1529
S'b3061'
p1530
aS'b3062'
p1531
aasS'FE3HOXR3'
p1532
(lp1533
g13
asS'FE3HOXR2'
p1534
(lp1535
g13
asS'PYDAMK'
p1536
(lp1537
S'b2418'
p1538
asS'METTRS'
p1539
(lp1540
S'b2114'
p1541
asS'EX_cpgn_un_LPAREN_e_RPAREN_'
p1542
(lp1543
g13
asS'GLCabcpp'
p1544
(lp1545
(lp1546
S'b2148'
p1547
aS'b2149'
p1548
aS'b2150'
p1549
aasS'EX_ala_B_LPAREN_e_RPAREN_'
p1550
(lp1551
g13
asS'ACGAL1PPpp'
p1552
(lp1553
g13
asS'SHCHCS2'
p1554
(lp1555
S'b2264'
p1556
asS'HKNTDH'
p1557
(lp1558
S'b0349'
p1559
asS'12DGR120tipp'
p1560
(lp1561
g13
asS'EX_3hpppn_LPAREN_e_RPAREN_'
p1562
(lp1563
g13
asS'EX_LalaDgluMdap_LPAREN_e_RPAREN_'
p1564
(lp1565
g13
asS'EX_man_LPAREN_e_RPAREN_'
p1566
(lp1567
g13
asS'PTRCt2pp'
p1568
(lp1569
S'b0692'
p1570
aS'b1296'
p1571
asS'UPLA4FNT'
p1572
(lp1573
S'b2254'
p1574
asS'LPLIPAL2G180'
p1575
(lp1576
S'b3825'
p1577
asS'LPLIPAL2G181'
p1578
(lp1579
S'b3825'
p1580
asS'GUI2'
p1581
(lp1582
S'b3092'
p1583
asS'GUI1'
p1584
(lp1585
S'b3092'
p1586
asS'MCTP2App'
p1587
(lp1588
S'b0149'
p1589
aS'b0084'
p1590
aS'b3396'
p1591
aS'b0635'
p1592
asS'GLUtex'
p1593
(lp1594
S'b2215'
p1595
aS'b0241'
p1596
aS'b1377'
p1597
aS'b0929'
p1598
asS'EX_acgal_LPAREN_e_RPAREN_'
p1599
(lp1600
g13
asS'EX_pser_L_LPAREN_e_RPAREN_'
p1601
(lp1602
g13
asS'MALTHXtexi'
p1603
(lp1604
S'b4036'
p1605
asS'THMDtex'
p1606
(lp1607
S'b2215'
p1608
aS'b0241'
p1609
aS'b1377'
p1610
aS'b0929'
p1611
asS'NMNt7pp'
p1612
(lp1613
g13
asS'FECRMR3'
p1614
(lp1615
g13
asS'X5PL3E'
p1616
(lp1617
S'b4197'
p1618
asS'GALTtex'
p1619
(lp1620
S'b2215'
p1621
aS'b0241'
p1622
aS'b1377'
p1623
aS'b0929'
p1624
asS'INDOLEtex'
p1625
(lp1626
S'b2215'
p1627
aS'b0241'
p1628
aS'b1377'
p1629
aS'b0929'
p1630
asS'AGPAT140'
p1631
(lp1632
S'b3018'
p1633
asS'AGPAT141'
p1634
(lp1635
S'b3018'
p1636
asS'EX_spmd_LPAREN_e_RPAREN_'
p1637
(lp1638
g13
asS'GTHRDabc2pp'
p1639
(lp1640
(lp1641
S'b0886'
p1642
aS'b0887'
p1643
aasS'23PDE2pp'
p1644
(lp1645
S'b4213'
p1646
asS'URIH'
p1647
(lp1648
S'b2162'
p1649
aS'b0030'
p1650
aS'b0651'
p1651
asS'ALLK'
p1652
(lp1653
S'b4084'
p1654
asS'URIC'
p1655
(lp1656
g13
asS'MNt2pp'
p1657
(lp1658
S'b2392'
p1659
asS'PLIPA1E160pp'
p1660
(lp1661
S'b3821'
p1662
asS'EX_k_LPAREN_e_RPAREN_'
p1663
(lp1664
g13
asS'OPHHX'
p1665
(lp1666
S'b3835'
p1667
asS'4PCP'
p1668
(lp1669
S'b1192'
p1670
asS'ACNAMtex'
p1671
(lp1672
S'b4311'
p1673
aS'b2215'
p1674
aS'b0929'
p1675
asS'CGLYtex'
p1676
(lp1677
S'b2215'
p1678
aS'b0241'
p1679
aS'b1377'
p1680
aS'b0929'
p1681
asS'GLGC'
p1682
(lp1683
S'b3430'
p1684
asS'HYXNtpp'
p1685
(lp1686
g13
asS'2AGPA120tipp'
p1687
(lp1688
S'b2835'
p1689
asS'BSORy'
p1690
(lp1691
S'b3551'
p1692
asS'HYD1pp'
p1693
(lp1694
(lp1695
S'b0972'
p1696
aS'b0973'
p1697
aS'b0974'
p1698
aa(lp1699
S'b2719'
p1700
aS'b2720'
p1701
aS'b2721'
p1702
aS'b2722'
p1703
aS'b2723'
p1704
aS'b2724'
p1705
aa(lp1706
S'b2994'
p1707
aS'b2997'
p1708
aasS'BSORx'
p1709
(lp1710
S'b3551'
p1711
asS'CBItonex'
p1712
(lp1713
(lp1714
S'b1252'
p1715
aS'b3005'
p1716
aS'b3006'
p1717
aS'b3966'
p1718
aasS'NDPK6'
p1719
(lp1720
S'b2518'
p1721
aS'b0474'
p1722
asS'DOPAtex'
p1723
(lp1724
S'b2215'
p1725
aS'b0241'
p1726
aS'b1377'
p1727
aS'b0929'
p1728
asS'2AGPG180tipp'
p1729
(lp1730
S'b2835'
p1731
asS'EX_fruur_LPAREN_e_RPAREN_'
p1732
(lp1733
g13
asS'ADOCBLabcpp'
p1734
(lp1735
(lp1736
S'b0158'
p1737
aS'b1709'
p1738
aS'b1711'
p1739
aasS'GTHRDtex'
p1740
(lp1741
S'b2215'
p1742
aS'b0241'
p1743
aS'b1377'
p1744
aS'b0929'
p1745
asS'AGMtex'
p1746
(lp1747
S'b2215'
p1748
aS'b0241'
p1749
aS'b1377'
p1750
aS'b0929'
p1751
asS'METS'
p1752
(lp1753
S'b4019'
p1754
aS'b3829'
p1755
asS'KDOCT2'
p1756
(lp1757
S'b0918'
p1758
asS'O16AP1pp'
p1759
(lp1760
(lp1761
S'b2027'
p1762
aS'b2035'
p1763
aasS'PROD2'
p1764
(lp1765
S'b1014'
p1766
asS'G3PStex'
p1767
(lp1768
S'b0241'
p1769
aS'b0929'
p1770
aS'b2215'
p1771
aS'b1377'
p1772
asS'PSCLYStex'
p1773
(lp1774
S'b0241'
p1775
aS'b0929'
p1776
aS'b1377'
p1777
aS'b2215'
p1778
asS'HOMtex'
p1779
(lp1780
S'b2215'
p1781
aS'b0241'
p1782
aS'b1377'
p1783
aS'b0929'
p1784
asS'EX_manglyc_LPAREN_e_RPAREN_'
p1785
(lp1786
g13
asS'PE120abcpp'
p1787
(lp1788
S'b0914'
p1789
asS'TAGURr'
p1790
(lp1791
S'b1521'
p1792
asS'EX_pacald_LPAREN_e_RPAREN_'
p1793
(lp1794
g13
asS'EX_ins_LPAREN_e_RPAREN_'
p1795
(lp1796
g13
asS'GLYCDx'
p1797
(lp1798
S'b3945'
p1799
asS'RBP4E'
p1800
(lp1801
S'b4198'
p1802
aS'b0061'
p1803
aS'b3583'
p1804
asS'ARBTNabcpp'
p1805
(lp1806
(lp1807
S'b0151'
p1808
aS'b0152'
p1809
aS'b0153'
p1810
aasS'12DGR181tipp'
p1811
(lp1812
g13
asS'GALS3'
p1813
(lp1814
S'b4119'
p1815
asS'DMStex'
p1816
(lp1817
S'b2215'
p1818
aS'b0241'
p1819
aS'b1377'
p1820
aS'b0929'
p1821
asS'URAt2rpp'
p1822
(lp1823
S'b1006'
p1824
asS'U23GAAT'
p1825
(lp1826
S'b0179'
p1827
asS'AMPN'
p1828
(lp1829
S'b1982'
p1830
asS'EX_feoxam_un_LPAREN_e_RPAREN_'
p1831
(lp1832
g13
asS'FE3HOXexs'
p1833
(lp1834
S's0001'
p1835
asS'DXYLK'
p1836
(lp1837
S'b3564'
p1838
asS'PAPPT3'
p1839
(lp1840
S'b0087'
p1841
asS'3HCINNMH'
p1842
(lp1843
S'b0347'
p1844
asS'ORNabcpp'
p1845
(lp1846
(lp1847
S'b2306'
p1848
aS'b2307'
p1849
aS'b2308'
p1850
aS'b2310'
p1851
aasS'PG160abcpp'
p1852
(lp1853
S'b0914'
p1854
asS'FLVR'
p1855
(lp1856
S'b3844'
p1857
a(lp1858
S'b2763'
p1859
aS'b2764'
p1860
aasS'NADPHQR3'
p1861
(lp1862
S'b3028'
p1863
asS'NADPHQR4'
p1864
(lp1865
S'b3028'
p1866
asS'AACPS8'
p1867
(lp1868
(lp1869
S'b1094'
p1870
aS'b2836'
p1871
aasS'ADOCBLS'
p1872
(lp1873
S'b1992'
p1874
asS'PG180abcpp'
p1875
(lp1876
S'b0914'
p1877
asS'LADGMDH'
p1878
(lp1879
S'b1326'
p1880
asS'DDGALK'
p1881
(lp1882
S'b3693'
p1883
asS'CPGNabcpp'
p1884
(lp1885
(lp1886
S'b0151'
p1887
aS'b0152'
p1888
aS'b0153'
p1889
aasS'ECAP1pp'
p1890
(lp1891
(lp1892
S'b3785'
p1893
aS'b3793'
p1894
aasS'3OAR80'
p1895
(lp1896
S'b1093'
p1897
asS'FCLT'
p1898
(lp1899
S'b0475'
p1900
asS'DKMPPD3'
p1901
(lp1902
g13
asS'AACPS4'
p1903
(lp1904
(lp1905
S'b1094'
p1906
aS'b2836'
p1907
aasS'PItex'
p1908
(lp1909
S'b2215'
p1910
aS'b0241'
p1911
aS'b1377'
p1912
aS'b0929'
p1913
asS'AACPS5'
p1914
(lp1915
(lp1916
S'b1094'
p1917
aS'b2836'
p1918
aasS'DCYTD'
p1919
(lp1920
S'b2143'
p1921
asS'AP5AH'
p1922
(lp1923
S'b0049'
p1924
asS'AACPS7'
p1925
(lp1926
(lp1927
S'b1094'
p1928
aS'b2836'
p1929
aasS'DM_4HBA'
p1930
(lp1931
g13
asS'GLCURtex'
p1932
(lp1933
S'b2215'
p1934
aS'b0241'
p1935
aS'b1377'
p1936
aS'b0929'
p1937
asS'IDONtex'
p1938
(lp1939
S'b2215'
p1940
aS'b0241'
p1941
aS'b1377'
p1942
aS'b0929'
p1943
asS'PGPP160pp'
p1944
(lp1945
S'b0418'
p1946
aS'b1278'
p1947
asS'AB6PGH'
p1948
(lp1949
S'b2901'
p1950
asS'LPLIPAL2ATE160'
p1951
(lp1952
S'b3825'
p1953
asS'RNDR2b'
p1954
(lp1955
(lp1956
S'b1654'
p1957
aS'b2675'
p1958
aS'b2676'
p1959
aa(lp1960
S'b0849'
p1961
aS'b2675'
p1962
aS'b2676'
p1963
aa(lp1964
S'b1064'
p1965
aS'b2675'
p1966
aS'b2676'
p1967
aa(lp1968
S'b2675'
p1969
aS'b2676'
p1970
aS'b3610'
p1971
aasS'EX_xtsn_LPAREN_e_RPAREN_'
p1972
(lp1973
g13
asS'TYRtex'
p1974
(lp1975
S'b2215'
p1976
aS'b0241'
p1977
aS'b1377'
p1978
aS'b0929'
p1979
asS'AACPS3'
p1980
(lp1981
(lp1982
S'b1094'
p1983
aS'b2836'
p1984
aasS'HDCAtexi'
p1985
(lp1986
S'b2344'
p1987
asS'SBTptspp'
p1988
(lp1989
(lp1990
S'b2415'
p1991
aS'b2416'
p1992
aS'b2702'
p1993
aS'b2703'
p1994
aS'b2704'
p1995
aasS'MOBDtex'
p1996
(lp1997
S'b2215'
p1998
aS'b0241'
p1999
aS'b1377'
p2000
aS'b0929'
p2001
asS'FACOAE100'
p2002
(lp2003
S'b0452'
p2004
asS'ADD'
p2005
(lp2006
S'b3665'
p2007
asS'ADA'
p2008
(lp2009
S'b1623'
p2010
asS'EX_phe_L_LPAREN_e_RPAREN_'
p2011
(lp2012
g13
asS'GLCDpp'
p2013
(lp2014
S'b0837'
p2015
aS'b0124'
p2016
asS'FDH4pp'
p2017
(lp2018
(lp2019
S'b3892'
p2020
aS'b3893'
p2021
aS'b3894'
p2022
aa(lp2023
S'b1474'
p2024
aS'b1475'
p2025
aS'b1476'
p2026
aasS'EDTXS4'
p2027
(lp2028
S'b1855'
p2029
asS'EDTXS1'
p2030
(lp2031
S'b1054'
p2032
asS'ALTRH'
p2033
(lp2034
S'b3091'
p2035
asS'EDTXS3'
p2036
(lp2037
S'b2378'
p2038
asS'OPHBDC'
p2039
(lp2040
S'b3843'
p2041
aS'b2311'
p2042
asS'ASNtex'
p2043
(lp2044
S'b2215'
p2045
aS'b0241'
p2046
aS'b1377'
p2047
aS'b0929'
p2048
asS'FA120ACPHi'
p2049
(lp2050
S'b0404'
p2051
asS'CYSTL'
p2052
(lp2053
S'b1622'
p2054
aS'b3008'
p2055
asS'FE3DHBZStonex'
p2056
(lp2057
(lp2058
S'b0805'
p2059
aS'b1252'
p2060
aS'b3005'
p2061
aS'b3006'
p2062
aa(lp2063
S'b1252'
p2064
aS'b2155'
p2065
aS'b3005'
p2066
aS'b3006'
p2067
aasS'EX_fru_LPAREN_e_RPAREN_'
p2068
(lp2069
g13
asS'Kt3pp'
p2070
(lp2071
S'b0047'
p2072
aS'b3350'
p2073
aS'b0842'
p2074
aS'b1216'
p2075
asS'UAGDP'
p2076
(lp2077
S'b3730'
p2078
asS'FACOAL160t2pp'
p2079
(lp2080
S'b1701'
p2081
aS'b1805'
p2082
asS'TRSARr'
p2083
(lp2084
S'b0509'
p2085
aS'b3125'
p2086
asS'PDX5POi'
p2087
(lp2088
S'b1638'
p2089
asS'R5PPpp'
p2090
(lp2091
S'b4055'
p2092
asS'HPPPNt2rpp'
p2093
(lp2094
S'b0353'
p2095
asS'ENLIPAtex'
p2096
(lp2097
g13
asS'SUCCtex'
p2098
(lp2099
S'b2215'
p2100
aS'b0241'
p2101
aS'b1377'
p2102
aS'b0929'
p2103
asS'ALAt4pp'
p2104
(lp2105
S'b0007'
p2106
asS'ASPt2_3pp'
p2107
(lp2108
S'b4138'
p2109
aS'b4123'
p2110
asS'EX_hg2_LPAREN_e_RPAREN_'
p2111
(lp2112
g13
asS'SUCCt3pp'
p2113
(lp2114
g13
asS'OXAMTC'
p2115
(lp2116
g13
asS'SPODM'
p2117
(lp2118
S'b3908'
p2119
aS'b1656'
p2120
asS'GLUabcpp'
p2121
(lp2122
(lp2123
S'b0652'
p2124
aS'b0653'
p2125
aS'b0654'
p2126
aS'b0655'
p2127
aasS'TPRDCOAS'
p2128
(lp2129
S'b0613'
p2130
asS'NTD8'
p2131
(lp2132
S'b2291'
p2133
aS'b2744'
p2134
asS'XYLabcpp'
p2135
(lp2136
(lp2137
S'b3566'
p2138
aS'b3567'
p2139
aS'b3568'
p2140
aasS'NTD6'
p2141
(lp2142
S'b2291'
p2143
aS'b2744'
p2144
asS'NTD7'
p2145
(lp2146
S'b2744'
p2147
asS'NTD4'
p2148
(lp2149
S'b2744'
p2150
asS'NTD5'
p2151
(lp2152
S'b4374'
p2153
aS'b2744'
p2154
aS'b2291'
p2155
asS'NTD2'
p2156
(lp2157
S'b4374'
p2158
aS'b2744'
p2159
asS'NTD3'
p2160
(lp2161
S'b2744'
p2162
aS'b2291'
p2163
asS'NTD1'
p2164
(lp2165
S'b4374'
p2166
aS'b2744'
p2167
aS'b2291'
p2168
asS'THMDt2rpp'
p2169
(lp2170
S'b2406'
p2171
asS'NAtex'
p2172
(lp2173
S'b2215'
p2174
aS'b0241'
p2175
aS'b1377'
p2176
aS'b0929'
p2177
asS'METAT'
p2178
(lp2179
S'b2942'
p2180
asS'2AGPG140tipp'
p2181
(lp2182
S'b2835'
p2183
asS'GBBTNtex'
p2184
(lp2185
S'b2215'
p2186
aS'b0241'
p2187
aS'b1377'
p2188
aS'b0929'
p2189
asS'3OAS120'
p2190
(lp2191
S'b2323'
p2192
aS'b1095'
p2193
asS'3OAS121'
p2194
(lp2195
S'b2323'
p2196
asS'INStex'
p2197
(lp2198
S'b0411'
p2199
asS'PPCK'
p2200
(lp2201
S'b3403'
p2202
asS'ACM6PH'
p2203
(lp2204
g13
asS'ARBTNR3'
p2205
(lp2206
g13
asS'EX_xan_LPAREN_e_RPAREN_'
p2207
(lp2208
g13
asS'ADSL1r'
p2209
(lp2210
S'b1131'
p2211
asS'PACALDtex'
p2212
(lp2213
S'b1377'
p2214
aS'b2215'
p2215
aS'b0929'
p2216
aS'b0241'
p2217
asS'EX_ascb_L_LPAREN_e_RPAREN_'
p2218
(lp2219
g13
asS'G6PDH2r'
p2220
(lp2221
S'b1852'
p2222
asS'ACtex'
p2223
(lp2224
S'b2215'
p2225
aS'b0241'
p2226
aS'b1377'
p2227
aS'b0929'
p2228
asS'NMNAT'
p2229
(lp2230
S'b4390'
p2231
aS'b0639'
p2232
asS'Kabcpp'
p2233
(lp2234
(lp2235
S'b0696'
p2236
aS'b0697'
p2237
aS'b0698'
p2238
aasS'MELIBt2pp'
p2239
(lp2240
S'b4120'
p2241
asS'EX_no_LPAREN_e_RPAREN_'
p2242
(lp2243
g13
asS'DAPabcpp'
p2244
(lp2245
g13
asS'NACODA'
p2246
(lp2247
S'b3957'
p2248
asS'DSERtex'
p2249
(lp2250
S'b2215'
p2251
aS'b0241'
p2252
aS'b1377'
p2253
aS'b0929'
p2254
asS'HG2t3pp'
p2255
(lp2256
S'b3915'
p2257
asS'CFAS180G'
p2258
(lp2259
S'b1661'
p2260
asS'GDPMNH'
p2261
(lp2262
S'b2051'
p2263
asS'UM4PL'
p2264
(lp2265
S'b4233'
p2266
asS'ACMUMtex'
p2267
(lp2268
S'b2215'
p2269
aS'b0241'
p2270
aS'b1377'
p2271
aS'b0929'
p2272
asS'LPLIPAL1A120pp'
p2273
(lp2274
S'b0494'
p2275
asS'GDPMNP'
p2276
(lp2277
S'b2467'
p2278
asS'MALS'
p2279
(lp2280
S'b4014'
p2281
aS'b2976'
p2282
asS'MMETt2pp'
p2283
(lp2284
S'b0260'
p2285
asS'MN2tpp'
p2286
(lp2287
S'b3040'
p2288
asS'EX_cl_LPAREN_e_RPAREN_'
p2289
(lp2290
g13
asS'PE180abcpp'
p2291
(lp2292
S'b0914'
p2293
asS'ARBt2rpp'
p2294
(lp2295
S'b2841'
p2296
asS'EX_nac_LPAREN_e_RPAREN_'
p2297
(lp2298
g13
asS'EX_peamn_LPAREN_e_RPAREN_'
p2299
(lp2300
g13
asS'EX_tmao_LPAREN_e_RPAREN_'
p2301
(lp2302
g13
asS'PAPA160'
p2303
(lp2304
S'b1278'
p2305
asS'PAPA161'
p2306
(lp2307
S'b1278'
p2308
asS'EX_akg_LPAREN_e_RPAREN_'
p2309
(lp2310
g13
asS'MALTPTabcpp'
p2311
(lp2312
(lp2313
S'b4032'
p2314
aS'b4033'
p2315
aS'b4034'
p2316
aS'b4035'
p2317
aasS'EX_26dap_M_LPAREN_e_RPAREN_'
p2318
(lp2319
g13
asS'MINOHPtexi'
p2320
(lp2321
g13
asS'PGPP120pp'
p2322
(lp2323
S'b1278'
p2324
aS'b0418'
p2325
asS'ALATA_L2'
p2326
(lp2327
S'b0870'
p2328
aS'b2551'
p2329
asS'PHETA1'
p2330
(lp2331
S'b3770'
p2332
aS'b4054'
p2333
aS'b0928'
p2334
asS'FMETTRS'
p2335
(lp2336
S'b3288'
p2337
asS'EX_glcur1p_LPAREN_e_RPAREN_'
p2338
(lp2339
g13
asS'GPDDA3pp'
p2340
(lp2341
S'b2239'
p2342
asS'PTRCORNt7pp'
p2343
(lp2344
S'b0692'
p2345
asS'ACOAD4f'
p2346
(lp2347
S'b0221'
p2348
asS'ATPHs'
p2349
(lp2350
S's0001'
p2351
asS'NTPP9'
p2352
(lp2353
S'b2954'
p2354
asS'NTPP8'
p2355
(lp2356
S'b2781'
p2357
asS'NTPP7'
p2358
(lp2359
S'b2251'
p2360
aS'b2781'
p2361
asS'NTPP6'
p2362
(lp2363
S'b2781'
p2364
asS'NTPP5'
p2365
(lp2366
S'b1865'
p2367
aS'b2781'
p2368
asS'NTPP4'
p2369
(lp2370
S'b1759'
p2371
aS'b2781'
p2372
asS'NTPP3'
p2373
(lp2374
S'b2251'
p2375
aS'b2781'
p2376
aS'b1759'
p2377
asS'NTPP2'
p2378
(lp2379
S'b0099'
p2380
aS'b2781'
p2381
asS'NTPP1'
p2382
(lp2383
S'b0099'
p2384
aS'b2781'
p2385
asS'GUR1PPpp'
p2386
(lp2387
g13
asS'FCLPA'
p2388
(lp2389
S'b2738'
p2390
aS'b2800'
p2391
asS'F6Pt6_2pp'
p2392
(lp2393
S'b3666'
p2394
asS'EX_din_LPAREN_e_RPAREN_'
p2395
(lp2396
g13
asS'MAN6PI'
p2397
(lp2398
S'b1613'
p2399
asS'GLU5K'
p2400
(lp2401
S'b0242'
p2402
asS'PPALtex'
p2403
(lp2404
S'b2215'
p2405
aS'b0241'
p2406
aS'b1377'
p2407
aS'b0929'
p2408
asS'3HAD100'
p2409
(lp2410
S'b0954'
p2411
aS'b0180'
p2412
asS'HPPPNDO'
p2413
(lp2414
S'b0348'
p2415
asS'AMPMS2'
p2416
(lp2417
S'b3994'
p2418
asS'DMSOR2pp'
p2419
(lp2420
(lp2421
S'b1872'
p2422
aS'b1873'
p2423
aasS'LCADi'
p2424
(lp2425
S'b1415'
p2426
asS'CHLt2pp'
p2427
(lp2428
S'b0314'
p2429
aS'b1801'
p2430
asS'MCITS'
p2431
(lp2432
S'b0333'
p2433
asS'MCITD'
p2434
(lp2435
S'b0334'
p2436
asS'HIStex'
p2437
(lp2438
S'b2215'
p2439
aS'b0241'
p2440
aS'b1377'
p2441
aS'b0929'
p2442
asS'IG3PS'
p2443
(lp2444
(lp2445
S'b2023'
p2446
aS'b2025'
p2447
aasS'EX_enter_LPAREN_e_RPAREN_'
p2448
(lp2449
g13
asS'DINStex'
p2450
(lp2451
S'b2215'
p2452
aS'b0241'
p2453
aS'b1377'
p2454
aS'b0929'
p2455
asS'DNMPPA'
p2456
(lp2457
g13
asS'PSSA181'
p2458
(lp2459
S'b2585'
p2460
asS'PSSA180'
p2461
(lp2462
S'b2585'
p2463
asS'3OAS181'
p2464
(lp2465
S'b1095'
p2466
asS'SULFACtex'
p2467
(lp2468
S'b2215'
p2469
aS'b0241'
p2470
aS'b1377'
p2471
aS'b0929'
p2472
asS'DRPA'
p2473
(lp2474
S'b4381'
p2475
asS'CLPNH140pp'
p2476
(lp2477
g13
asS'OCTAtex'
p2478
(lp2479
S'b2215'
p2480
aS'b0241'
p2481
aS'b1377'
p2482
aS'b0929'
p2483
asS'G1PTT'
p2484
(lp2485
S'b3789'
p2486
aS'b2039'
p2487
asS'CD2tex'
p2488
(lp2489
S'b2215'
p2490
aS'b0241'
p2491
aS'b1377'
p2492
aS'b0929'
p2493
asS'GALT1'
p2494
(lp2495
S'b3628'
p2496
asS'URAtex'
p2497
(lp2498
S'b2215'
p2499
aS'b0241'
p2500
aS'b1377'
p2501
aS'b0929'
p2502
asS'FACOAE180'
p2503
(lp2504
S'b0452'
p2505
asS'LPLIPAL1G161pp'
p2506
(lp2507
S'b0494'
p2508
asS'EX_gam6p_LPAREN_e_RPAREN_'
p2509
(lp2510
g13
asS'NNATr'
p2511
(lp2512
S'b0639'
p2513
asS'EX_glyclt_LPAREN_e_RPAREN_'
p2514
(lp2515
g13
asS'PE161abcpp'
p2516
(lp2517
S'b0914'
p2518
asS'EAR141y'
p2519
(lp2520
S'b1288'
p2521
asS'EAR141x'
p2522
(lp2523
S'b1288'
p2524
asS'DPR'
p2525
(lp2526
S'b0425'
p2527
aS'b3774'
p2528
asS'CRNCAL2'
p2529
(lp2530
S'b0037'
p2531
asS'ACACCT'
p2532
(lp2533
(lp2534
S'b2221'
p2535
aS'b2222'
p2536
aasS'PPBNGS'
p2537
(lp2538
S'b0369'
p2539
asS'3HAD80'
p2540
(lp2541
S'b0954'
p2542
aS'b0180'
p2543
asS'SULFACabcpp'
p2544
(lp2545
(lp2546
S'b0933'
p2547
aS'b0934'
p2548
aS'b0936'
p2549
aasS'12PPDRtpp'
p2550
(lp2551
g13
asS'LPLIPAL2ATG181'
p2552
(lp2553
S'b3825'
p2554
asS'LPLIPAL2ATG180'
p2555
(lp2556
S'b3825'
p2557
asS'HISTRS'
p2558
(lp2559
S'b2514'
p2560
asS'CBPS'
p2561
(lp2562
(lp2563
S'b0032'
p2564
aS'b0033'
p2565
aasS'MALDt2_2pp'
p2566
(lp2567
S'b3528'
p2568
asS'AGM3PA'
p2569
(lp2570
S'b0110'
p2571
asS'AGM3PH'
p2572
(lp2573
S'b1107'
p2574
asS'EX_succ_LPAREN_e_RPAREN_'
p2575
(lp2576
g13
asS'EX_pro_L_LPAREN_e_RPAREN_'
p2577
(lp2578
g13
asS'TMDK1'
p2579
(lp2580
S'b1238'
p2581
asS'EX_f6p_LPAREN_e_RPAREN_'
p2582
(lp2583
g13
asS'LPLIPAL1A160pp'
p2584
(lp2585
S'b0494'
p2586
asS'PGP140abcpp'
p2587
(lp2588
S'b0914'
p2589
asS'FA160ACPHi'
p2590
(lp2591
S'b0404'
p2592
asS'12DGR141tipp'
p2593
(lp2594
g13
asS'LPLIPAL2ATG161'
p2595
(lp2596
S'b3825'
p2597
asS'LPLIPAL2ATG160'
p2598
(lp2599
S'b3825'
p2600
asS'GLYC3Pabcpp'
p2601
(lp2602
(lp2603
S'b3450'
p2604
aS'b3451'
p2605
aS'b3452'
p2606
aS'b3453'
p2607
aasS'MME'
p2608
(lp2609
g13
asS'EAR80x'
p2610
(lp2611
S'b1288'
p2612
asS'ILEtex'
p2613
(lp2614
S'b2215'
p2615
aS'b0241'
p2616
aS'b1377'
p2617
aS'b0929'
p2618
asS'HOMt2pp'
p2619
(lp2620
S'b0813'
p2621
aS'b3824'
p2622
asS'TSULabcpp'
p2623
(lp2624
(lp2625
S'b2422'
p2626
aS'b2423'
p2627
aS'b2424'
p2628
aS'b2425'
p2629
aa(lp2630
S'b2422'
p2631
aS'b2423'
p2632
aS'b2424'
p2633
aS'b3917'
p2634
aasS'DHFR'
p2635
(lp2636
S'b0048'
p2637
aS'b1606'
p2638
asS'DHFS'
p2639
(lp2640
S'b2315'
p2641
asS'NH4tpp'
p2642
(lp2643
S'b0451'
p2644
aS's0001'
p2645
asS'VALTA'
p2646
(lp2647
S'b3770'
p2648
asS'TMAOR1'
p2649
(lp2650
(lp2651
S'b0894'
p2652
aS'b0895'
p2653
aS'b0896'
p2654
aa(lp2655
S'b1587'
p2656
aS'b1588'
p2657
aS'b1589'
p2658
aS'b1590'
p2659
aasS'R5PP'
p2660
(lp2661
S'b0822'
p2662
asS'LPLIPAL2A120'
p2663
(lp2664
S'b3825'
p2665
asS'CFAS160G'
p2666
(lp2667
S'b1661'
p2668
asS'CFAS160E'
p2669
(lp2670
S'b1661'
p2671
asS'ICHORS'
p2672
(lp2673
S'b2265'
p2674
asS'ADK4'
p2675
(lp2676
S'b0474'
p2677
asS'ADK3'
p2678
(lp2679
S'b0474'
p2680
asS'ADK1'
p2681
(lp2682
S'b0474'
p2683
asS'PLIPA2E141pp'
p2684
(lp2685
S'b3821'
p2686
asS'GLYALDtpp'
p2687
(lp2688
S'b3927'
p2689
asS'FEROpp'
p2690
(lp2691
S'b0123'
p2692
asS'PLIPA1G161pp'
p2693
(lp2694
S'b3821'
p2695
asS'EX_idon_L_LPAREN_e_RPAREN_'
p2696
(lp2697
g13
asS'PROt4pp'
p2698
(lp2699
S'b1015'
p2700
asS'SADH'
p2701
(lp2702
S'b1745'
p2703
asS'PA161abcpp'
p2704
(lp2705
S'b0914'
p2706
asS'CRNCDH'
p2707
(lp2708
S'b0036'
p2709
asS'PGPP141'
p2710
(lp2711
S'b0418'
p2712
aS'b1278'
p2713
asS'PGPP140'
p2714
(lp2715
S'b0418'
p2716
aS'b1278'
p2717
asS'CYTDt2rpp'
p2718
(lp2719
S'b2406'
p2720
asS'L_LACtex'
p2721
(lp2722
S'b2215'
p2723
aS'b0241'
p2724
aS'b1377'
p2725
aS'b0929'
p2726
asS'AMMQLT8'
p2727
(lp2728
S'b3833'
p2729
asS'USHD'
p2730
(lp2731
S'b0524'
p2732
asS'UAAGDS'
p2733
(lp2734
S'b0085'
p2735
asS'GLCP2'
p2736
(lp2737
S'b3428'
p2738
aS'b3417'
p2739
asS'DM_5DRIB'
p2740
(lp2741
g13
asS'M1PD'
p2742
(lp2743
S'b3600'
p2744
asS'RNDR3b'
p2745
(lp2746
(lp2747
S'b1064'
p2748
aS'b2675'
p2749
aS'b2676'
p2750
aa(lp2751
S'b0849'
p2752
aS'b2675'
p2753
aS'b2676'
p2754
aa(lp2755
S'b1654'
p2756
aS'b2675'
p2757
aS'b2676'
p2758
aa(lp2759
S'b2675'
p2760
aS'b2676'
p2761
aS'b3610'
p2762
aasS'G3PCabcpp'
p2763
(lp2764
(lp2765
S'b3450'
p2766
aS'b3451'
p2767
aS'b3452'
p2768
aS'b3453'
p2769
aasS'EX_cpgn_LPAREN_e_RPAREN_'
p2770
(lp2771
g13
asS'ACONMT'
p2772
(lp2773
S'b1519'
p2774
asS'DUTPDP'
p2775
(lp2776
S'b2251'
p2777
aS'b3640'
p2778
asS'TREptspp'
p2779
(lp2780
(lp2781
S'b2415'
p2782
aS'b2416'
p2783
aS'b2417'
p2784
aS'b4240'
p2785
aasS'GALCTtex'
p2786
(lp2787
S'b2215'
p2788
aS'b0241'
p2789
aS'b1377'
p2790
aS'b0929'
p2791
asS'EX_pi_LPAREN_e_RPAREN_'
p2792
(lp2793
g13
asS'ALR2'
p2794
(lp2795
S'b3001'
p2796
aS'b3012'
p2797
aS'b1781'
p2798
aS'b0207'
p2799
asS'ENTERES'
p2800
(lp2801
S'b0585'
p2802
asS'TUNGStex'
p2803
(lp2804
S'b0241'
p2805
aS'b0929'
p2806
aS'b1377'
p2807
aS'b2215'
p2808
asS'ACNAMt2pp'
p2809
(lp2810
S'b3224'
p2811
asS'EX_trp_L_LPAREN_e_RPAREN_'
p2812
(lp2813
g13
asS'FMNRx2'
p2814
(lp2815
S'b3844'
p2816
a(lp2817
S'b2763'
p2818
aS'b2764'
p2819
aaS'b0937'
p2820
asS'DHDPRy'
p2821
(lp2822
S'b0031'
p2823
asS'O16AT'
p2824
(lp2825
S'b2033'
p2826
asS'DSBAO2'
p2827
(lp2828
(lp2829
S'b1185'
p2830
aS'b3860'
p2831
aasS'DSBAO1'
p2832
(lp2833
(lp2834
S'b1185'
p2835
aS'b3860'
p2836
aasS'PE181abcpp'
p2837
(lp2838
S'b0914'
p2839
asS'SO3tex'
p2840
(lp2841
S'b0929'
p2842
aS'b1377'
p2843
aS'b0241'
p2844
aS'b2215'
p2845
asS'PGCD'
p2846
(lp2847
S'b2913'
p2848
asS'2AGPA141tipp'
p2849
(lp2850
S'b2835'
p2851
asS'PLIPA1E161pp'
p2852
(lp2853
S'b3821'
p2854
asS'H2Otex'
p2855
(lp2856
S'b1377'
p2857
aS'b0957'
p2858
aS'b0929'
p2859
aS's0001'
p2860
aS'b0241'
p2861
aS'b1319'
p2862
aS'b3875'
p2863
aS'b2215'
p2864
asS'METDtex'
p2865
(lp2866
S'b2215'
p2867
aS'b0241'
p2868
aS'b1377'
p2869
aS'b0929'
p2870
asS'TMAOtex'
p2871
(lp2872
S'b2215'
p2873
aS'b0241'
p2874
aS'b1377'
p2875
aS'b0929'
p2876
asS'CYANtex'
p2877
(lp2878
S'b2215'
p2879
aS'b0241'
p2880
aS'b1377'
p2881
aS'b0929'
p2882
asS'EX_tyrp_LPAREN_e_RPAREN_'
p2883
(lp2884
g13
asS'ORNDC'
p2885
(lp2886
S'b2965'
p2887
aS'b0693'
p2888
asS'EX_ttdcea_LPAREN_e_RPAREN_'
p2889
(lp2890
g13
asS'CYTDt2pp'
p2891
(lp2892
S'b2964'
p2893
aS'b2393'
p2894
asS'FEENTERabcpp'
p2895
(lp2896
(lp2897
S'b0588'
p2898
aS'b0589'
p2899
aS'b0590'
p2900
aS'b0592'
p2901
aasS'EX_nmn_LPAREN_e_RPAREN_'
p2902
(lp2903
g13
asS'ME1'
p2904
(lp2905
S'b1479'
p2906
asS'PDE1'
p2907
(lp2908
S'b1489'
p2909
asS'METOX2s'
p2910
(lp2911
S's0001'
p2912
asS'CYTK1'
p2913
(lp2914
S'b0910'
p2915
asS'CYTK2'
p2916
(lp2917
S'b0910'
p2918
asS'AGPAT160'
p2919
(lp2920
S'b3018'
p2921
asS'AGPAT161'
p2922
(lp2923
S'b3018'
p2924
asS'ECA4OALpp'
p2925
(lp2926
S'b3622'
p2927
asS'O16AP2pp'
p2928
(lp2929
(lp2930
S'b2027'
p2931
aS'b2035'
p2932
aasS'NODOy'
p2933
(lp2934
S'b2552'
p2935
asS'2AGPE160tipp'
p2936
(lp2937
S'b2835'
p2938
asS'EX_arbtn_fe3_LPAREN_e_RPAREN_'
p2939
(lp2940
g13
asS'KDOPS'
p2941
(lp2942
S'b1215'
p2943
asS'EX_4abut_LPAREN_e_RPAREN_'
p2944
(lp2945
g13
asS'GLUt4pp'
p2946
(lp2947
S'b3653'
p2948
asS'SERt2rpp'
p2949
(lp2950
S'b2796'
p2951
aS'b3116'
p2952
asS'DCTPD'
p2953
(lp2954
S'b2065'
p2955
asS'ZN2tpp'
p2956
(lp2957
S'b3040'
p2958
asS'CLPNS140pp'
p2959
(lp2960
S'b1249'
p2961
aS'b0789'
p2962
asS'GDMANE'
p2963
(lp2964
S'b2052'
p2965
asS'CD2abcpp'
p2966
(lp2967
S'b3469'
p2968
asS'UAG2E'
p2969
(lp2970
S'b3786'
p2971
asS'ENO'
p2972
(lp2973
S'b2779'
p2974
asS'2AGPG160tipp'
p2975
(lp2976
S'b2835'
p2977
asS'EX_arbtn_LPAREN_e_RPAREN_'
p2978
(lp2979
g13
asS'ARGAGMt7pp'
p2980
(lp2981
S'b4115'
p2982
asS'G1SAT'
p2983
(lp2984
S'b0154'
p2985
asS'FADRx'
p2986
(lp2987
S'b3844'
p2988
asS'MSO3tex'
p2989
(lp2990
S'b2215'
p2991
aS'b0241'
p2992
aS'b1377'
p2993
aS'b0929'
p2994
asS'MCTP1App'
p2995
(lp2996
S'b3396'
p2997
aS'b0084'
p2998
aS'b0149'
p2999
aS'b0635'
p3000
asS'MALtex'
p3001
(lp3002
S'b2215'
p3003
aS'b0241'
p3004
aS'b1377'
p3005
aS'b0929'
p3006
asS'12DGR140tipp'
p3007
(lp3008
g13
asS'ACOAD6f'
p3009
(lp3010
S'b0221'
p3011
asS'EX_acgam_LPAREN_e_RPAREN_'
p3012
(lp3013
g13
asS'EX_sulfac_LPAREN_e_RPAREN_'
p3014
(lp3015
g13
asS'FDMO4'
p3016
(lp3017
S'b0935'
p3018
asS'MNNH'
p3019
(lp3020
S'b4322'
p3021
asS'G5SD'
p3022
(lp3023
S'b0243'
p3024
asS'DNTPPA'
p3025
(lp3026
S'b0099'
p3027
aS'b1865'
p3028
asS'S7PI'
p3029
(lp3030
S'b0222'
p3031
asS'XYLt2pp'
p3032
(lp3033
S'b4031'
p3034
asS'PETNT161pp'
p3035
(lp3036
S'b3546'
p3037
asS'RBK_L1'
p3038
(lp3039
S'b0063'
p3040
asS'UAGAAT'
p3041
(lp3042
(lp3043
S'b0181'
p3044
aS'b1094'
p3045
aasS'SBTPD'
p3046
(lp3047
S'b2705'
p3048
asS'LYSDC'
p3049
(lp3050
S'b0186'
p3051
aS'b4131'
p3052
asS'ADNCYC'
p3053
(lp3054
S'b3806'
p3055
asS'CRNt7pp'
p3056
(lp3057
S'b0040'
p3058
asS'GALCTNLtex'
p3059
(lp3060
S'b0241'
p3061
aS'b2215'
p3062
aS'b0929'
p3063
aS'b1377'
p3064
asS'AMPTASECG'
p3065
(lp3066
S'b0237'
p3067
aS'b0932'
p3068
aS'b2523'
p3069
aS'b4260'
p3070
asS'PDH'
p3071
(lp3072
(lp3073
S'b0114'
p3074
aS'b0115'
p3075
aS'b0116'
p3076
aasS'ALLtex'
p3077
(lp3078
S'b2215'
p3079
aS'b0241'
p3080
aS'b1377'
p3081
aS'b0929'
p3082
asS'GAM6Pt6_2pp'
p3083
(lp3084
S'b3666'
p3085
asS'GALUi'
p3086
(lp3087
S'b1236'
p3088
asS'PYRtex'
p3089
(lp3090
S'b2215'
p3091
aS'b0241'
p3092
aS'b1377'
p3093
aS'b0929'
p3094
asS'CLPNH181pp'
p3095
(lp3096
g13
asS'NI2tpp'
p3097
(lp3098
S'b3816'
p3099
asS'THRA2i'
p3100
(lp3101
S'b2551'
p3102
aS'b0870'
p3103
asS'CYSabc2pp'
p3104
(lp3105
(lp3106
S'b0886'
p3107
aS'b0887'
p3108
aasS'2AGPE161tipp'
p3109
(lp3110
S'b2835'
p3111
asS'KAT6'
p3112
(lp3113
S'b3845'
p3114
aS'b2342'
p3115
asS'LPLIPAL1G180pp'
p3116
(lp3117
S'b0494'
p3118
asS'O16AP3pp'
p3119
(lp3120
(lp3121
S'b2027'
p3122
aS'b2035'
p3123
aasS'EX_ala_D_LPAREN_e_RPAREN_'
p3124
(lp3125
g13
asS'NADH17pp'
p3126
(lp3127
(lp3128
S'b2276'
p3129
aS'b2277'
p3130
aS'b2278'
p3131
aS'b2279'
p3132
aS'b2280'
p3133
aS'b2281'
p3134
aS'b2282'
p3135
aS'b2283'
p3136
aS'b2284'
p3137
aS'b2285'
p3138
aS'b2286'
p3139
aS'b2287'
p3140
aS'b2288'
p3141
aasS'UPPRT'
p3142
(lp3143
S'b2498'
p3144
asS'NTD1pp'
p3145
(lp3146
S'b4055'
p3147
aS'b0480'
p3148
asS'FEENTERR1'
p3149
(lp3150
g13
asS'FEENTERR2'
p3151
(lp3152
g13
asS'FEENTERR3'
p3153
(lp3154
g13
asS'FECRMR1'
p3155
(lp3156
g13
asS'FECRMR2'
p3157
(lp3158
g13
asS'HACD8i'
p3159
(lp3160
S'b3846'
p3161
aS'b2341'
p3162
asS'COLIPAtex'
p3163
(lp3164
g13
asS'UPLA4FNF'
p3165
(lp3166
g13
asS'MAN6Ptex'
p3167
(lp3168
S'b2215'
p3169
aS'b0241'
p3170
aS'b1377'
p3171
aS'b0929'
p3172
asS'SUCptspp'
p3173
(lp3174
(lp3175
S'b2415'
p3176
aS'b2416'
p3177
aS'b2417'
p3178
aS'b2429'
p3179
aasS'UDPGPpp'
p3180
(lp3181
S'b0480'
p3182
asS'PLIPA1A120pp'
p3183
(lp3184
S'b3821'
p3185
asS'BUTtex'
p3186
(lp3187
S'b2215'
p3188
aS'b0241'
p3189
aS'b1377'
p3190
aS'b0929'
p3191
asS'HG2tex'
p3192
(lp3193
S'b2215'
p3194
aS'b0241'
p3195
aS'b1377'
p3196
aS'b0929'
p3197
asS'AACPS9'
p3198
(lp3199
(lp3200
S'b1094'
p3201
aS'b2836'
p3202
aasS'LPLIPAL2E120'
p3203
(lp3204
S'b3825'
p3205
asS'FACOAE120'
p3206
(lp3207
S'b0452'
p3208
asS'EAR140x'
p3209
(lp3210
S'b1288'
p3211
asS'EAR140y'
p3212
(lp3213
S'b1288'
p3214
asS'AACPS6'
p3215
(lp3216
(lp3217
S'b1094'
p3218
aS'b2836'
p3219
aasS'EX_cu_LPAREN_e_RPAREN_'
p3220
(lp3221
g13
asS'AACPS1'
p3222
(lp3223
(lp3224
S'b1094'
p3225
aS'b2836'
p3226
aasS'AACPS2'
p3227
(lp3228
(lp3229
S'b1094'
p3230
aS'b2836'
p3231
aasS'BTS4'
p3232
(lp3233
S'b0775'
p3234
asS'CLIPAtex'
p3235
(lp3236
g13
asS'XMPtex'
p3237
(lp3238
S'b2215'
p3239
aS'b0241'
p3240
aS'b1377'
p3241
aS'b0929'
p3242
asS'L_LACt2rpp'
p3243
(lp3244
S'b3603'
p3245
aS'b2975'
p3246
asS'GALCTLO'
p3247
(lp3248
S'b4358'
p3249
asS'ACCOAL'
p3250
(lp3251
S'b0335'
p3252
asS'CITL'
p3253
(lp3254
(lp3255
S'b0614'
p3256
aS'b0615'
p3257
aS'b0616'
p3258
aS'b0617'
p3259
aasS'FORtppi'
p3260
(lp3261
S'b0904'
p3262
aS'b2492'
p3263
asS'ACCOAC'
p3264
(lp3265
(lp3266
S'b0185'
p3267
aS'b2316'
p3268
aS'b3255'
p3269
aS'b3256'
p3270
aasS'EX_cbi_LPAREN_e_RPAREN_'
p3271
(lp3272
g13
asS'EX_g6p_LPAREN_e_RPAREN_'
p3273
(lp3274
g13
asS'EX_gal_bD_LPAREN_e_RPAREN_'
p3275
(lp3276
g13
asS'AKGDH'
p3277
(lp3278
(lp3279
S'b0116'
p3280
aS'b0726'
p3281
aS'b0727'
p3282
aasS'MANPGH'
p3283
(lp3284
S'b0732'
p3285
asS'GALCTND'
p3286
(lp3287
S'b4478'
p3288
asS'TYRt2rpp'
p3289
(lp3290
S'b1907'
p3291
aS'b0576'
p3292
aS'b0112'
p3293
asS'EX_23cump_LPAREN_e_RPAREN_'
p3294
(lp3295
g13
asS'NADH18pp'
p3296
(lp3297
(lp3298
S'b2276'
p3299
aS'b2277'
p3300
aS'b2278'
p3301
aS'b2279'
p3302
aS'b2280'
p3303
aS'b2281'
p3304
aS'b2282'
p3305
aS'b2283'
p3306
aS'b2284'
p3307
aS'b2285'
p3308
aS'b2286'
p3309
aS'b2287'
p3310
aS'b2288'
p3311
aasS'UDCPDPS'
p3312
(lp3313
S'b0174'
p3314
asS'MMETtex'
p3315
(lp3316
S'b2215'
p3317
aS'b0241'
p3318
aS'b1377'
p3319
aS'b0929'
p3320
asS'HSK'
p3321
(lp3322
S'b0003'
p3323
asS'METSOX2abcpp'
p3324
(lp3325
g13
asS'RMNtpp'
p3326
(lp3327
S'b3907'
p3328
asS'PPGPPDP'
p3329
(lp3330
S'b3650'
p3331
asS'ALAt2pp'
p3332
(lp3333
S'b4208'
p3334
asS'PLIPA2E180pp'
p3335
(lp3336
S'b3821'
p3337
asS'CLPNS141pp'
p3338
(lp3339
S'b0789'
p3340
aS'b1249'
p3341
asS'3OAR100'
p3342
(lp3343
S'b1093'
p3344
asS'OCTDPS'
p3345
(lp3346
S'b3187'
p3347
asS'LIPAHT2ex'
p3348
(lp3349
S'b0622'
p3350
asS'EX_mso3_LPAREN_e_RPAREN_'
p3351
(lp3352
g13
asS'CYSSADS'
p3353
(lp3354
S'b2810'
p3355
asS'EDTXS2'
p3356
(lp3357
S'b1855'
p3358
asS'MALTPTtexi'
p3359
(lp3360
S'b4036'
p3361
asS'SERTRS2'
p3362
(lp3363
S'b0893'
p3364
asS'DHAtpp'
p3365
(lp3366
g13
asS'GPDDA2pp'
p3367
(lp3368
S'b2239'
p3369
asS'O16GALFT'
p3370
(lp3371
S'b2034'
p3372
asS'CPGNUtpp'
p3373
(lp3374
g13
asS'EX_enlipa_LPAREN_e_RPAREN_'
p3375
(lp3376
g13
asS'GLYCLTt4pp'
p3377
(lp3378
S'b4067'
p3379
asS'EX_3ump_LPAREN_e_RPAREN_'
p3380
(lp3381
g13
asS'NAt3_1p5pp'
p3382
(lp3383
S'b1186'
p3384
asS'MDDCP1pp'
p3385
(lp3386
S'b2010'
p3387
aS'b0632'
p3388
aS'b0839'
p3389
aS'b3182'
p3390
asS'FACOAL60t2pp'
p3391
(lp3392
S'b1805'
p3393
aS'b1701'
p3394
asS'ULA4NFT'
p3395
(lp3396
S'b2255'
p3397
asS'UDPKAAT'
p3398
(lp3399
S'b2253'
p3400
asS'CYNTAH'
p3401
(lp3402
S'b0340'
p3403
asS'CYTDH'
p3404
(lp3405
S'b2162'
p3406
aS'b0030'
p3407
aS'b0651'
p3408
asS'2AGPA180tipp'
p3409
(lp3410
S'b2835'
p3411
asS'THMDt2pp'
p3412
(lp3413
S'b2964'
p3414
aS'b2393'
p3415
asS'EX_eca4colipa_LPAREN_e_RPAREN_'
p3416
(lp3417
g13
asS'AGM4PCPpp'
p3418
(lp3419
g13
asS'CU2tpp'
p3420
(lp3421
S'b3040'
p3422
asS'EX_glcr_LPAREN_e_RPAREN_'
p3423
(lp3424
g13
asS'PAPA140'
p3425
(lp3426
S'b1278'
p3427
asS'PAPA141'
p3428
(lp3429
S'b1278'
p3430
asS'5DGLCNtex'
p3431
(lp3432
S'b0241'
p3433
aS'b0929'
p3434
aS'b1377'
p3435
aS'b2215'
p3436
asS'ALLTNtex'
p3437
(lp3438
S'b2215'
p3439
aS'b0241'
p3440
aS'b1377'
p3441
aS'b0929'
p3442
asS'G3PCtex'
p3443
(lp3444
S'b2215'
p3445
aS'b0241'
p3446
aS'b1377'
p3447
aS'b0929'
p3448
asS'NI2uabcpp'
p3449
(lp3450
S'b4242'
p3451
a(lp3452
S'b3476'
p3453
aS'b3477'
p3454
aS'b3478'
p3455
aS'b3479'
p3456
aS'b3480'
p3457
aasS'QMO3'
p3458
(lp3459
S'b3029'
p3460
asS'QMO2'
p3461
(lp3462
S'b3029'
p3463
asS'PAPA120pp'
p3464
(lp3465
S'b1278'
p3466
asS'EX_agm_LPAREN_e_RPAREN_'
p3467
(lp3468
g13
asS'SELNPS'
p3469
(lp3470
S'b1764'
p3471
asS'ANPRT'
p3472
(lp3473
S'b1263'
p3474
asS'PSD180'
p3475
(lp3476
S'b4160'
p3477
asS'PSD181'
p3478
(lp3479
S'b4160'
p3480
asS'EX_o16a4colipa_LPAREN_e_RPAREN_'
p3481
(lp3482
g13
asS'EX_3hcinnm_LPAREN_e_RPAREN_'
p3483
(lp3484
g13
asS'FORtex'
p3485
(lp3486
S'b2215'
p3487
aS'b0241'
p3488
aS'b1377'
p3489
aS'b0929'
p3490
asS'3HAD121'
p3491
(lp3492
S'b0180'
p3493
aS'b0954'
p3494
asS'ARGDCpp'
p3495
(lp3496
S'b2938'
p3497
asS'DAGK120'
p3498
(lp3499
S'b4042'
p3500
asS'CSNt2pp'
p3501
(lp3502
S'b0336'
p3503
asS'SUCCt2_2pp'
p3504
(lp3505
S'b3528'
p3506
asS'NTD5pp'
p3507
(lp3508
S'b4055'
p3509
aS'b0480'
p3510
asS'PAPA160pp'
p3511
(lp3512
S'b1278'
p3513
asS'THRAi'
p3514
(lp3515
S'b0870'
p3516
aS'b2551'
p3517
asS'GARFT'
p3518
(lp3519
S'b2500'
p3520
asS'G3PT'
p3521
(lp3522
S'b0822'
p3523
asS'GLYCAtex'
p3524
(lp3525
S'b2215'
p3526
aS'b0241'
p3527
aS'b1377'
p3528
aS'b0929'
p3529
asS'ADOCBIK'
p3530
(lp3531
S'b1993'
p3532
asS'MALTHXabcpp'
p3533
(lp3534
(lp3535
S'b4032'
p3536
aS'b4033'
p3537
aS'b4034'
p3538
aS'b4035'
p3539
aasS'GGGABADr'
p3540
(lp3541
S'b1300'
p3542
asS'2AGPG161tipp'
p3543
(lp3544
S'b2835'
p3545
asS'HXPRT'
p3546
(lp3547
S'b0238'
p3548
aS'b0125'
p3549
asS'GDPDPK'
p3550
(lp3551
S'b2784'
p3552
aS'b3650'
p3553
asS'EX_cytd_LPAREN_e_RPAREN_'
p3554
(lp3555
g13
asS'EX_inost_LPAREN_e_RPAREN_'
p3556
(lp3557
g13
asS'GLCP'
p3558
(lp3559
S'b3428'
p3560
aS'b3417'
p3561
asS'DDPGALA'
p3562
(lp3563
S'b4477'
p3564
asS'EX_asp_L_LPAREN_e_RPAREN_'
p3565
(lp3566
g13
asS'ARBabcpp'
p3567
(lp3568
(lp3569
S'b1900'
p3570
aS'b1901'
p3571
aS'b4460'
p3572
aasS'RNTR3c'
p3573
(lp3574
(lp3575
S'b0684'
p3576
aS'b3924'
p3577
aS'b4237'
p3578
aS'b4238'
p3579
aa(lp3580
S'b0684'
p3581
aS'b4238'
p3582
aa(lp3583
S'b2895'
p3584
aS'b4238'
p3585
aa(lp3586
S'b2895'
p3587
aS'b3924'
p3588
aS'b4237'
p3589
aS'b4238'
p3590
aasS'PLIPA2G141pp'
p3591
(lp3592
S'b3821'
p3593
asS'G3PEtex'
p3594
(lp3595
S'b0241'
p3596
aS'b0929'
p3597
aS'b2215'
p3598
aS'b1377'
p3599
asS'LPLIPAL1A161pp'
p3600
(lp3601
S'b0494'
p3602
asS'CYStex'
p3603
(lp3604
S'b2215'
p3605
aS'b0241'
p3606
aS'b1377'
p3607
aS'b0929'
p3608
asS'FACOAL161t2pp'
p3609
(lp3610
S'b1805'
p3611
aS'b1701'
p3612
asS'UACMAMO'
p3613
(lp3614
S'b3787'
p3615
asS'O2tpp'
p3616
(lp3617
S's0001'
p3618
asS'ARBTNtonex'
p3619
(lp3620
g13
asS'HACD7i'
p3621
(lp3622
S'b2341'
p3623
aS'b3846'
p3624
asS'ASO3tex'
p3625
(lp3626
S'b2215'
p3627
aS'b0241'
p3628
aS'b1377'
p3629
aS'b0929'
p3630
asS'INSH'
p3631
(lp3632
S'b0030'
p3633
asS'PLIPA2A120pp'
p3634
(lp3635
S'b3821'
p3636
asS'INSK'
p3637
(lp3638
S'b0477'
p3639
asS'TYRPtex'
p3640
(lp3641
S'b2215'
p3642
aS'b0241'
p3643
aS'b1377'
p3644
aS'b0929'
p3645
asS'PYRt2rpp'
p3646
(lp3647
g13
asS'AMANAPEr'
p3648
(lp3649
S'b3223'
p3650
asS'EX_g3pe_LPAREN_e_RPAREN_'
p3651
(lp3652
g13
asS'GND'
p3653
(lp3654
S'b2029'
p3655
asS'GNK'
p3656
(lp3657
S'b3437'
p3658
aS'b4268'
p3659
asS'NADH10'
p3660
(lp3661
S'b1109'
p3662
asS'GLCNt2rpp'
p3663
(lp3664
S'b4476'
p3665
aS'b3415'
p3666
aS'b4321'
p3667
aS'b4265'
p3668
asS'LYSabcpp'
p3669
(lp3670
(lp3671
S'b2306'
p3672
aS'b2307'
p3673
aS'b2308'
p3674
aS'b2310'
p3675
aasS'CLPNS180pp'
p3676
(lp3677
S'b0789'
p3678
aS'b1249'
p3679
asS'PLIPA2A161pp'
p3680
(lp3681
S'b3821'
p3682
asS'PLIPA2E140pp'
p3683
(lp3684
S'b3821'
p3685
asS'EX_damp_LPAREN_e_RPAREN_'
p3686
(lp3687
g13
asS'PYAM5PO'
p3688
(lp3689
S'b1638'
p3690
asS'DM_HMFURN'
p3691
(lp3692
g13
asS'EX_ag_LPAREN_e_RPAREN_'
p3693
(lp3694
g13
asS'3OAS80'
p3695
(lp3696
S'b2323'
p3697
aS'b1095'
p3698
asS'GLYtex'
p3699
(lp3700
S'b2215'
p3701
aS'b0241'
p3702
aS'b1377'
p3703
aS'b0929'
p3704
asS'ALAALAD'
p3705
(lp3706
S'b1488'
p3707
asS'EX_fald_LPAREN_e_RPAREN_'
p3708
(lp3709
g13
asS'DADK'
p3710
(lp3711
S'b0474'
p3712
asS'2AGPE140tipp'
p3713
(lp3714
S'b2835'
p3715
asS'LPLIPAL2ATG141'
p3716
(lp3717
S'b3825'
p3718
asS'LPLIPAL2ATG140'
p3719
(lp3720
S'b3825'
p3721
asS'DADA'
p3722
(lp3723
S'b1623'
p3724
asS'ALAALAr'
p3725
(lp3726
S'b0381'
p3727
aS'b0092'
p3728
asS'PSSA141'
p3729
(lp3730
S'b2585'
p3731
asS'PSSA140'
p3732
(lp3733
S'b2585'
p3734
asS'EX_his_L_LPAREN_e_RPAREN_'
p3735
(lp3736
g13
asS'2AGPEAT120'
p3737
(lp3738
S'b2836'
p3739
asS'EX_thymd_LPAREN_e_RPAREN_'
p3740
(lp3741
g13
asS'ACGALtex'
p3742
(lp3743
S'b2215'
p3744
aS'b0241'
p3745
aS'b1377'
p3746
aS'b0929'
p3747
asS'PA180abcpp'
p3748
(lp3749
S'b0914'
p3750
asS'2AGPA140tipp'
p3751
(lp3752
S'b2835'
p3753
asS'MALt2_2pp'
p3754
(lp3755
S'b3528'
p3756
asS'NTPP10'
p3757
(lp3758
S'b2954'
p3759
asS'3HAD120'
p3760
(lp3761
S'b0954'
p3762
aS'b0180'
p3763
asS'EX_duri_LPAREN_e_RPAREN_'
p3764
(lp3765
g13
asS'GLYBabcpp'
p3766
(lp3767
(lp3768
S'b2128'
p3769
aS'b2129'
p3770
aS'b2130'
p3771
aS'b2131'
p3772
aasS'LPLIPAL2A140'
p3773
(lp3774
S'b3825'
p3775
asS'LPLIPAL2A141'
p3776
(lp3777
S'b3825'
p3778
asS'EX_cynt_LPAREN_e_RPAREN_'
p3779
(lp3780
g13
asS'GLCRD'
p3781
(lp3782
S'b2787'
p3783
aS'b2788'
p3784
asS'NO3tex'
p3785
(lp3786
S'b1377'
p3787
aS'b0241'
p3788
aS'b2215'
p3789
aS'b0929'
p3790
asS'TYMtex'
p3791
(lp3792
S'b2215'
p3793
aS'b0241'
p3794
aS'b1377'
p3795
aS'b0929'
p3796
asS'EAR161y'
p3797
(lp3798
S'b1288'
p3799
asS'EAR161x'
p3800
(lp3801
S'b1288'
p3802
asS'ALLTN'
p3803
(lp3804
S'b0512'
p3805
asS'EX_dms_LPAREN_e_RPAREN_'
p3806
(lp3807
g13
asS'DASYN181'
p3808
(lp3809
S'b0175'
p3810
asS'EX_ura_LPAREN_e_RPAREN_'
p3811
(lp3812
g13
asS'PG141abcpp'
p3813
(lp3814
S'b0914'
p3815
asS'NTD4pp'
p3816
(lp3817
S'b0480'
p3818
aS'b4055'
p3819
asS'AGDC'
p3820
(lp3821
S'b0677'
p3822
asS'FCI'
p3823
(lp3824
S'b2802'
p3825
asS'TRPt2rpp'
p3826
(lp3827
S'b0112'
p3828
aS'b3709'
p3829
aS'b3161'
p3830
asS'EX_glu_L_LPAREN_e_RPAREN_'
p3831
(lp3832
g13
asS'PNTOtex'
p3833
(lp3834
S'b2215'
p3835
aS'b0241'
p3836
aS'b1377'
p3837
aS'b0929'
p3838
asS'ASCBPL'
p3839
(lp3840
S'b4192'
p3841
asS'ASCBptspp'
p3842
(lp3843
(lp3844
S'b2415'
p3845
aS'b2416'
p3846
aS'b4193'
p3847
aS'b4194'
p3848
aS'b4195'
p3849
aasS'PGPP161'
p3850
(lp3851
S'b1278'
p3852
aS'b0418'
p3853
asS'PGPP160'
p3854
(lp3855
S'b0418'
p3856
aS'b1278'
p3857
asS'PRFGS'
p3858
(lp3859
S'b2557'
p3860
asS'PG120abcpp'
p3861
(lp3862
S'b0914'
p3863
asS'ETOHtex'
p3864
(lp3865
S'b2215'
p3866
aS'b0241'
p3867
aS'b1377'
p3868
aS'b0929'
p3869
asS'MG2tex'
p3870
(lp3871
S'b2215'
p3872
aS'b0241'
p3873
aS'b1377'
p3874
aS'b0929'
p3875
asS'DASYN160'
p3876
(lp3877
S'b0175'
p3878
asS'DASYN161'
p3879
(lp3880
S'b0175'
p3881
asS'AGM3PApp'
p3882
(lp3883
S'b2435'
p3884
aS'b4169'
p3885
aS'b2817'
p3886
asS'XTSNt2rpp'
p3887
(lp3888
S'b2406'
p3889
asS'PLIPA2G140pp'
p3890
(lp3891
S'b3821'
p3892
asS'MALTTRtexi'
p3893
(lp3894
S'b4036'
p3895
asS'RNDR4'
p3896
(lp3897
(lp3898
S'b2234'
p3899
aS'b2235'
p3900
aS'b3781'
p3901
aa(lp3902
S'b2234'
p3903
aS'b2235'
p3904
aS'b2582'
p3905
aasS'RNDR3'
p3906
(lp3907
(lp3908
S'b2234'
p3909
aS'b2235'
p3910
aS'b3781'
p3911
aa(lp3912
S'b2234'
p3913
aS'b2235'
p3914
aS'b2582'
p3915
aasS'RNDR2'
p3916
(lp3917
(lp3918
S'b2234'
p3919
aS'b2235'
p3920
aS'b3781'
p3921
aa(lp3922
S'b2234'
p3923
aS'b2235'
p3924
aS'b2582'
p3925
aasS'RNDR1'
p3926
(lp3927
(lp3928
S'b2234'
p3929
aS'b2235'
p3930
aS'b2582'
p3931
aa(lp3932
S'b2234'
p3933
aS'b2235'
p3934
aS'b3781'
p3935
aasS'PSCVT'
p3936
(lp3937
S'b0908'
p3938
asS'RNDR1b'
p3939
(lp3940
(lp3941
S'b0849'
p3942
aS'b2675'
p3943
aS'b2676'
p3944
aa(lp3945
S'b1064'
p3946
aS'b2675'
p3947
aS'b2676'
p3948
aa(lp3949
S'b1654'
p3950
aS'b2675'
p3951
aS'b2676'
p3952
aa(lp3953
S'b2675'
p3954
aS'b2676'
p3955
aS'b3610'
p3956
aasS'GMAND'
p3957
(lp3958
S'b2053'
p3959
asS'PDXPP'
p3960
(lp3961
g13
asS'GALCTNLt2pp'
p3962
(lp3963
S'b4356'
p3964
asS'2AGPA160tipp'
p3965
(lp3966
S'b2835'
p3967
asS'EX_galctn_D_LPAREN_e_RPAREN_'
p3968
(lp3969
g13
asS'K2L4Aabcpp'
p3970
(lp3971
S'b0914'
p3972
asS'CHLabcpp'
p3973
(lp3974
(lp3975
S'b2128'
p3976
aS'b2129'
p3977
aS'b2130'
p3978
aS'b2131'
p3979
aasS'GLYC3Pt6pp'
p3980
(lp3981
S'b2240'
p3982
asS'ETHAtex'
p3983
(lp3984
S'b2215'
p3985
aS'b0241'
p3986
aS'b1377'
p3987
aS'b0929'
p3988
asS'SPMDtex'
p3989
(lp3990
S'b2215'
p3991
aS'b0241'
p3992
aS'b1377'
p3993
aS'b0929'
p3994
asS'EX_acmum_LPAREN_e_RPAREN_'
p3995
(lp3996
g13
asS'PGPP141pp'
p3997
(lp3998
S'b1278'
p3999
aS'b0418'
p4000
asS'CYSDabcpp'
p4001
(lp4002
g13
asS'HPPPNtex'
p4003
(lp4004
S'b0241'
p4005
aS'b0929'
p4006
aS'b2215'
p4007
aS'b1377'
p4008
asS'EX_metsox_S_L_LPAREN_e_RPAREN_'
p4009
(lp4010
g13
asS'GDPtex'
p4011
(lp4012
S'b0241'
p4013
aS'b1377'
p4014
aS'b0929'
p4015
aS'b2215'
p4016
asS'NTD9'
p4017
(lp4018
S'b2744'
p4019
asS'FACOAL180t2pp'
p4020
(lp4021
S'b1701'
p4022
aS'b1805'
p4023
asS'LPLIPAL2ATE140'
p4024
(lp4025
S'b3825'
p4026
asS'CLPNS181pp'
p4027
(lp4028
S'b0789'
p4029
aS'b1249'
p4030
asS'LA4NTpp'
p4031
(lp4032
S'b2257'
p4033
asS'ADCL'
p4034
(lp4035
S'b1096'
p4036
asS'PLIPA2A160pp'
p4037
(lp4038
S'b3821'
p4039
asS'EX_ttdca_LPAREN_e_RPAREN_'
p4040
(lp4041
g13
asS'AM4PCP'
p4042
(lp4043
S'b1192'
p4044
asS'FRUpts2pp'
p4045
(lp4046
(lp4047
S'b1817'
p4048
aS'b1818'
p4049
aS'b1819'
p4050
aS'b2415'
p4051
aS'b2416'
p4052
aasS'BUTSO3abcpp'
p4053
(lp4054
(lp4055
S'b0933'
p4056
aS'b0934'
p4057
aS'b0936'
p4058
aa(lp4059
S'b0365'
p4060
aS'b0366'
p4061
aS'b0367'
p4062
aasS'EX_skm_LPAREN_e_RPAREN_'
p4063
(lp4064
g13
asS'NADH9'
p4065
(lp4066
S'b1109'
p4067
asS'FA100ACPHi'
p4068
(lp4069
S'b0404'
p4070
asS'EX_ocdca_LPAREN_e_RPAREN_'
p4071
(lp4072
g13
asS'EX_dimp_LPAREN_e_RPAREN_'
p4073
(lp4074
g13
asS'TDSR1'
p4075
(lp4076
(lp4077
S'b2893'
p4078
aS'b4136'
p4079
aasS'TDSR2'
p4080
(lp4081
(lp4082
S'b0604'
p4083
aS'b4136'
p4084
aasS'DPCOAK'
p4085
(lp4086
S'b0103'
p4087
asS'NADH5'
p4088
(lp4089
S'b1109'
p4090
asS'EX_acnam_LPAREN_e_RPAREN_'
p4091
(lp4092
g13
asS'CHORM'
p4093
(lp4094
S'b2599'
p4095
aS'b2600'
p4096
asS'BALAtex'
p4097
(lp4098
S'b2215'
p4099
aS'b0241'
p4100
aS'b1377'
p4101
aS'b0929'
p4102
asS'PLIPA1E120pp'
p4103
(lp4104
S'b3821'
p4105
asS'CHORS'
p4106
(lp4107
S'b2329'
p4108
asS'FRULYStex'
p4109
(lp4110
S'b2215'
p4111
aS'b0241'
p4112
aS'b1377'
p4113
aS'b0929'
p4114
asS'EX_galctn_L_LPAREN_e_RPAREN_'
p4115
(lp4116
g13
asS'2DGLCNRx'
p4117
(lp4118
S'b3553'
p4119
asS'HCO3E'
p4120
(lp4121
S'b0126'
p4122
aS'b0339'
p4123
asS'DHNPA2'
p4124
(lp4125
S'b3058'
p4126
asS'EX_3gmp_LPAREN_e_RPAREN_'
p4127
(lp4128
g13
asS'ADCS'
p4129
(lp4130
(lp4131
S'b1812'
p4132
aS'b3360'
p4133
aasS'AGPAT180'
p4134
(lp4135
S'b3018'
p4136
asS'AGPAT181'
p4137
(lp4138
S'b3018'
p4139
asS'FLDR'
p4140
(lp4141
(lp4142
S'b0684'
p4143
aS'b3924'
p4144
aa(lp4145
S'b2895'
p4146
aS'b3924'
p4147
aasS'2AGPE180tipp'
p4148
(lp4149
S'b2835'
p4150
asS'3OAR60'
p4151
(lp4152
S'b1093'
p4153
asS'AM4PA'
p4154
(lp4155
S'b0110'
p4156
asS'AMANK'
p4157
(lp4158
S'b3222'
p4159
asS'3NTD7pp'
p4160
(lp4161
S'b4213'
p4162
asS'TARTRtex'
p4163
(lp4164
S'b2215'
p4165
aS'b0241'
p4166
aS'b1377'
p4167
aS'b0929'
p4168
asS'DMATT'
p4169
(lp4170
S'b0421'
p4171
asS'LPLIPAL1G140pp'
p4172
(lp4173
S'b0494'
p4174
asS'THRt2pp'
p4175
(lp4176
S'b0813'
p4177
aS'b3823'
p4178
asS'3GMPtex'
p4179
(lp4180
S'b0241'
p4181
aS'b1377'
p4182
aS'b0929'
p4183
aS'b2215'
p4184
asS'PHETRS'
p4185
(lp4186
(lp4187
S'b1713'
p4188
aS'b1714'
p4189
aasS'MNLtex'
p4190
(lp4191
S'b0929'
p4192
aS'b1377'
p4193
aS'b0241'
p4194
aS'b2215'
p4195
asS'ICDHyr'
p4196
(lp4197
S'b1136'
p4198
asS'SUCFUMtpp'
p4199
(lp4200
S'b4138'
p4201
aS'b0621'
p4202
aS'b4123'
p4203
asS'THRabcpp'
p4204
(lp4205
(lp4206
S'b3454'
p4207
aS'b3455'
p4208
aS'b3456'
p4209
aS'b3457'
p4210
aS'b3460'
p4211
aasS'PHEMEtiex'
p4212
(lp4213
g13
asS'DCMPtex'
p4214
(lp4215
S'b2215'
p4216
aS'b0241'
p4217
aS'b1377'
p4218
aS'b0929'
p4219
asS'EX_gam_LPAREN_e_RPAREN_'
p4220
(lp4221
g13
asS'FBP'
p4222
(lp4223
S'b3925'
p4224
aS'b4232'
p4225
asS'HISabcpp'
p4226
(lp4227
(lp4228
S'b2306'
p4229
aS'b2307'
p4230
aS'b2308'
p4231
aS'b2309'
p4232
aasS'LPLIPAL1E180pp'
p4233
(lp4234
S'b0494'
p4235
asS'FEENTERtpp'
p4236
(lp4237
S'b0591'
p4238
asS'COBALT2tpp'
p4239
(lp4240
S'b3040'
p4241
aS'b3816'
p4242
asS'FBA'
p4243
(lp4244
S'b1773'
p4245
aS'b2097'
p4246
aS'b2925'
p4247
asS'2AGPE141tipp'
p4248
(lp4249
S'b2835'
p4250
asS'CBIAT'
p4251
(lp4252
S'b1270'
p4253
asS'LPLIPAL1E140pp'
p4254
(lp4255
S'b0494'
p4256
asS'AMPtex'
p4257
(lp4258
S'b2215'
p4259
aS'b0241'
p4260
aS'b1377'
p4261
aS'b0929'
p4262
asS'PPCDC'
p4263
(lp4264
S'b3639'
p4265
asS'ACGAtex'
p4266
(lp4267
S'b2215'
p4268
aS'b0241'
p4269
aS'b1377'
p4270
aS'b0929'
p4271
asS'ACOAD8f'
p4272
(lp4273
S'b0221'
p4274
asS'ARGTRS'
p4275
(lp4276
S'b1876'
p4277
asS'MDDEP4pp'
p4278
(lp4279
S'b3182'
p4280
aS'b2134'
p4281
aS'b2328'
p4282
asS'ACACtex'
p4283
(lp4284
S'b2215'
p4285
aS'b0241'
p4286
aS'b1377'
p4287
aS'b0929'
p4288
asS'LPLIPAL1G181pp'
p4289
(lp4290
S'b0494'
p4291
asS'EX_gmp_LPAREN_e_RPAREN_'
p4292
(lp4293
g13
asS'GLUSy'
p4294
(lp4295
(lp4296
S'b3212'
p4297
aS'b3213'
p4298
aasS'GUAt2pp'
p4299
(lp4300
S'b3654'
p4301
asS'CDAPPA120'
p4302
(lp4303
S'b3918'
p4304
asS'SERtex'
p4305
(lp4306
S'b2215'
p4307
aS'b0241'
p4308
aS'b1377'
p4309
aS'b0929'
p4310
asS'PRMICI'
p4311
(lp4312
S'b2024'
p4313
asS'ODECOAI'
p4314
(lp4315
S'b3846'
p4316
asS'PLIPA2G181pp'
p4317
(lp4318
S'b3821'
p4319
asS'ABUTD'
p4320
(lp4321
S'b1444'
p4322
asS'ICL'
p4323
(lp4324
S'b4015'
p4325
asS'DGK1'
p4326
(lp4327
S'b3648'
p4328
asS'ALAabcpp'
p4329
(lp4330
(lp4331
S'b3454'
p4332
aS'b3455'
p4333
aS'b3456'
p4334
aS'b3457'
p4335
aS'b3460'
p4336
aasS'EX_gsn_LPAREN_e_RPAREN_'
p4337
(lp4338
g13
asS'EX_acald_LPAREN_e_RPAREN_'
p4339
(lp4340
g13
asS'EX_sucr_LPAREN_e_RPAREN_'
p4341
(lp4342
g13
asS'FALDtex'
p4343
(lp4344
S'b2215'
p4345
aS'b0241'
p4346
aS'b1377'
p4347
aS'b0929'
p4348
asS'EX_fe3dcit_LPAREN_e_RPAREN_'
p4349
(lp4350
g13
asS'PFK'
p4351
(lp4352
S'b3916'
p4353
aS'b1723'
p4354
asS'PFL'
p4355
(lp4356
(lp4357
S'b3951'
p4358
aS'b3952'
p4359
aa(lp4360
S'b0902'
p4361
aS'b0903'
p4362
aS'b2579'
p4363
aa(lp4364
S'b0902'
p4365
aS'b3114'
p4366
aa(lp4367
S'b0902'
p4368
aS'b0903'
p4369
aasS'GRXR'
p4370
(lp4371
S'b0849'
p4372
aS'b1064'
p4373
aS'b1654'
p4374
aS'b3610'
p4375
asS'THZPSN'
p4376
(lp4377
(lp4378
S'b0423'
p4379
aS'b2530'
p4380
aS'b3990'
p4381
aS'b3991'
p4382
aS'b3992'
p4383
aS'b4407'
p4384
aasS'EX_23dappa_LPAREN_e_RPAREN_'
p4385
(lp4386
g13
asS'PEAMNtex'
p4387
(lp4388
S'b2215'
p4389
aS'b0241'
p4390
aS'b1377'
p4391
aS'b0929'
p4392
asS'FUCtpp'
p4393
(lp4394
S'b2801'
p4395
asS'GLUt2rpp'
p4396
(lp4397
S'b4077'
p4398
asS'ALLULPE'
p4399
(lp4400
S'b4085'
p4401
asS'EX_r5p_LPAREN_e_RPAREN_'
p4402
(lp4403
g13
asS'DBTS'
p4404
(lp4405
S'b0778'
p4406
asS'AADDGT'
p4407
(lp4408
S'b4481'
p4409
asS'GUAPRT'
p4410
(lp4411
S'b0125'
p4412
aS'b0238'
p4413
asS'EAR120y'
p4414
(lp4415
S'b1288'
p4416
asS'TYRTRS'
p4417
(lp4418
S'b1637'
p4419
asS'ARBTNtpp'
p4420
(lp4421
g13
asS'EX_hxa_LPAREN_e_RPAREN_'
p4422
(lp4423
g13
asS'KG6PDC'
p4424
(lp4425
S'b4196'
p4426
aS'b3581'
p4427
asS'ATPM'
p4428
(lp4429
g13
asS'3NTD4pp'
p4430
(lp4431
S'b4213'
p4432
asS'UDPGALtex'
p4433
(lp4434
S'b2215'
p4435
aS'b0241'
p4436
aS'b1377'
p4437
aS'b0929'
p4438
asS'EX_lac_D_LPAREN_e_RPAREN_'
p4439
(lp4440
g13
asS'FACOAE141'
p4441
(lp4442
S'b0452'
p4443
asS'FACOAE140'
p4444
(lp4445
S'b0452'
p4446
asS'FACOAL100t2pp'
p4447
(lp4448
S'b1805'
p4449
aS'b1701'
p4450
asS'GLCRAL'
p4451
(lp4452
S'b3126'
p4453
asS'NNDMBRT'
p4454
(lp4455
S'b1991'
p4456
asS'DINSt2pp'
p4457
(lp4458
S'b2964'
p4459
asS'PYNP2r'
p4460
(lp4461
S'b3831'
p4462
asS'EX_etoh_LPAREN_e_RPAREN_'
p4463
(lp4464
g13
asS'EX_acgal1p_LPAREN_e_RPAREN_'
p4465
(lp4466
g13
asS'ISETACabcpp'
p4467
(lp4468
(lp4469
S'b0365'
p4470
aS'b0366'
p4471
aS'b0367'
p4472
aa(lp4473
S'b0933'
p4474
aS'b0934'
p4475
aS'b0936'
p4476
aasS'DHNAOT4'
p4477
(lp4478
S'b3930'
p4479
asS'ACODA'
p4480
(lp4481
S'b3957'
p4482
asS'LALDO2x'
p4483
(lp4484
S'b3945'
p4485
asS'2AGPGAT120'
p4486
(lp4487
S'b2836'
p4488
asS'DKGLCNR2x'
p4489
(lp4490
S'b3553'
p4491
asS'DKGLCNR2y'
p4492
(lp4493
S'b3553'
p4494
asS'GLCS1'
p4495
(lp4496
S'b3429'
p4497
asS'PPAtex'
p4498
(lp4499
S'b0241'
p4500
aS'b1377'
p4501
aS'b2215'
p4502
aS'b0929'
p4503
asS'GPDDA5pp'
p4504
(lp4505
S'b2239'
p4506
asS'PROtex'
p4507
(lp4508
S'b2215'
p4509
aS'b0241'
p4510
aS'b1377'
p4511
aS'b0929'
p4512
asS'MNLptspp'
p4513
(lp4514
(lp4515
S'b2415'
p4516
aS'b2416'
p4517
aS'b3599'
p4518
aasS'NAt3_2pp'
p4519
(lp4520
S'b0019'
p4521
asS'GTPDPK'
p4522
(lp4523
S'b2784'
p4524
asS'UGLT'
p4525
(lp4526
S'b0758'
p4527
asS'3OAR121'
p4528
(lp4529
S'b1093'
p4530
asS'3OAR120'
p4531
(lp4532
S'b1093'
p4533
asS'EX_fe2_LPAREN_e_RPAREN_'
p4534
(lp4535
g13
asS'ADNUC'
p4536
(lp4537
S'b0030'
p4538
asS'LSERDHr'
p4539
(lp4540
S'b1539'
p4541
asS'PEAMNOpp'
p4542
(lp4543
S'b1386'
p4544
asS'FRULYSt2pp'
p4545
(lp4546
S'b3370'
p4547
asS'GGGABAH'
p4548
(lp4549
S'b1298'
p4550
asS'MG2uabcpp'
p4551
(lp4552
S'b4242'
p4553
asS'G6Pt6_2pp'
p4554
(lp4555
S'b3666'
p4556
asS'EAR160x'
p4557
(lp4558
S'b1288'
p4559
asS'EAR160y'
p4560
(lp4561
S'b1288'
p4562
asS'THD2pp'
p4563
(lp4564
(lp4565
S'b1602'
p4566
aS'b1603'
p4567
aasS'EX_indole_LPAREN_e_RPAREN_'
p4568
(lp4569
g13
asS'PPK2r'
p4570
(lp4571
S'b2501'
p4572
asS'MANGLYCptspp'
p4573
(lp4574
(lp4575
S'b0731'
p4576
aS'b2415'
p4577
aS'b2416'
p4578
aasS'PAPA141pp'
p4579
(lp4580
S'b1278'
p4581
asS'ABTA'
p4582
(lp4583
S'b2662'
p4584
aS'b1302'
p4585
asS'CADVtpp'
p4586
(lp4587
S'b4132'
p4588
asS'LPLIPAL1G160pp'
p4589
(lp4590
S'b0494'
p4591
asS'DHPPD'
p4592
(lp4593
S'b2541'
p4594
asS'FUMt2_2pp'
p4595
(lp4596
S'b3528'
p4597
asS'EX_cit_LPAREN_e_RPAREN_'
p4598
(lp4599
g13
asS'MLDEP1pp'
p4600
(lp4601
g13
asS'ADEtex'
p4602
(lp4603
S'b2215'
p4604
aS'b0241'
p4605
aS'b1377'
p4606
aS'b0929'
p4607
asS'HMBS'
p4608
(lp4609
S'b3805'
p4610
asS'GTPCI'
p4611
(lp4612
S'b2153'
p4613
asS'SUCCt2_3pp'
p4614
(lp4615
S'b4138'
p4616
aS'b4123'
p4617
asS'THYMt3pp'
p4618
(lp4619
g13
asS'EX_xyl_D_LPAREN_e_RPAREN_'
p4620
(lp4621
g13
asS'PPTtex'
p4622
(lp4623
S'b2215'
p4624
aS'b0241'
p4625
aS'b1377'
p4626
aS'b0929'
p4627
asS'PPPGO3'
p4628
(lp4629
S'b3850'
p4630
asS'PAPA161pp'
p4631
(lp4632
S'b1278'
p4633
asS'PG161abcpp'
p4634
(lp4635
S'b0914'
p4636
asS'ASPtex'
p4637
(lp4638
S'b2215'
p4639
aS'b0241'
p4640
aS'b1377'
p4641
aS'b0929'
p4642
asS'2AGPGAT180'
p4643
(lp4644
S'b2836'
p4645
asS'TYRPpp'
p4646
(lp4647
S'b4055'
p4648
asS'HXAtex'
p4649
(lp4650
S'b2215'
p4651
aS'b0241'
p4652
aS'b1377'
p4653
aS'b0929'
p4654
asS'TMAOR1pp'
p4655
(lp4656
(lp4657
S'b1872'
p4658
aS'b1873'
p4659
aa(lp4660
S'b0996'
p4661
aS'b0997'
p4662
aasS'DM_OXAM'
p4663
(lp4664
g13
asS'SADT2'
p4665
(lp4666
(lp4667
S'b2751'
p4668
aS'b2752'
p4669
aasS'METSOXR1'
p4670
(lp4671
(lp4672
S'b2582'
p4673
aS'b4219'
p4674
aa(lp4675
S'b3781'
p4676
aS'b4219'
p4677
aasS'UDCPDP'
p4678
(lp4679
S'b0841'
p4680
aS'b3057'
p4681
aS'b1278'
p4682
asS'NTP10'
p4683
(lp4684
S'b4161'
p4685
aS'b4394'
p4686
asS'NTP11'
p4687
(lp4688
S'b4394'
p4689
asS'NTP12'
p4690
(lp4691
S'b4394'
p4692
asS'DHAD1'
p4693
(lp4694
S'b3771'
p4695
asS'DHAD2'
p4696
(lp4697
S'b3771'
p4698
asS'ADPT'
p4699
(lp4700
S'b0469'
p4701
asS'SKMtex'
p4702
(lp4703
S'b2215'
p4704
aS'b0241'
p4705
aS'b1377'
p4706
aS'b0929'
p4707
asS'MICITD'
p4708
(lp4709
S'b0118'
p4710
asS'EX_acac_LPAREN_e_RPAREN_'
p4711
(lp4712
g13
asS'GLTPD'
p4713
(lp4714
S'b2091'
p4715
asS'GLYt2pp'
p4716
(lp4717
S'b1801'
p4718
aS'b4208'
p4719
asS'TREtex'
p4720
(lp4721
S'b2215'
p4722
aS'b0241'
p4723
aS'b1377'
p4724
aS'b0929'
p4725
asS'CO2tex'
p4726
(lp4727
S'b2215'
p4728
aS'b0241'
p4729
aS'b1377'
p4730
aS'b0929'
p4731
asS'3OAS180'
p4732
(lp4733
S'b1095'
p4734
aS'b2323'
p4735
asS'TCYNTtex'
p4736
(lp4737
S'b0241'
p4738
aS'b0929'
p4739
aS'b2215'
p4740
aS'b1377'
p4741
asS'LPLIPAL1G141pp'
p4742
(lp4743
S'b0494'
p4744
asS'AMALT4'
p4745
(lp4746
S'b3416'
p4747
asS'PROGLYtex'
p4748
(lp4749
S'b2215'
p4750
aS'b0241'
p4751
aS'b1377'
p4752
aS'b0929'
p4753
asS'ARGDC'
p4754
(lp4755
S'b4117'
p4756
asS'CAT'
p4757
(lp4758
S'b1732'
p4759
aS'b3942'
p4760
asS'PHYTSpp'
p4761
(lp4762
S'b0980'
p4763
asS'EX_thrp_LPAREN_e_RPAREN_'
p4764
(lp4765
g13
asS'GLCTR1'
p4766
(lp4767
S'b3631'
p4768
asS'GLCTR2'
p4769
(lp4770
S'b3627'
p4771
asS'GLCTR3'
p4772
(lp4773
S'b3626'
p4774
asS'HEX1'
p4775
(lp4776
S'b2388'
p4777
asS'DAGK141'
p4778
(lp4779
S'b4042'
p4780
asS'DAGK140'
p4781
(lp4782
S'b4042'
p4783
asS'HEX4'
p4784
(lp4785
g13
asS'HEX7'
p4786
(lp4787
S'b0394'
p4788
asS'URIDK2r'
p4789
(lp4790
S'b0171'
p4791
asS'PPNDH'
p4792
(lp4793
S'b2599'
p4794
asS'PGL'
p4795
(lp4796
S'b0767'
p4797
asS'PGM'
p4798
(lp4799
S'b4395'
p4800
aS'b3612'
p4801
aS'b0755'
p4802
asS'PGK'
p4803
(lp4804
S'b2926'
p4805
asS'PGI'
p4806
(lp4807
S'b4025'
p4808
asS'HEPT4'
p4809
(lp4810
S'b3623'
p4811
asS'DMSOR1pp'
p4812
(lp4813
(lp4814
S'b1872'
p4815
aS'b1873'
p4816
aasS'HEPT3'
p4817
(lp4818
S'b3632'
p4819
asS'HEPT1'
p4820
(lp4821
S'b3621'
p4822
asS'VALt2rpp'
p4823
(lp4824
S'b0401'
p4825
asS'ASPTRS'
p4826
(lp4827
S'b1866'
p4828
asS'CAt6pp'
p4829
(lp4830
S'b3196'
p4831
asS'EX_hdca_LPAREN_e_RPAREN_'
p4832
(lp4833
g13
asS'EX_galct_D_LPAREN_e_RPAREN_'
p4834
(lp4835
g13
asS'EX_hxan_LPAREN_e_RPAREN_'
p4836
(lp4837
g13
asS'FDMO3'
p4838
(lp4839
S'b0935'
p4840
asS'FDMO2'
p4841
(lp4842
S'b0935'
p4843
asS'PPTHpp'
p4844
(lp4845
S'b0383'
p4846
asS'LIPACabcpp'
p4847
(lp4848
S'b0914'
p4849
asS'FDMO6'
p4850
(lp4851
S'b0935'
p4852
asS'TMAtex'
p4853
(lp4854
S'b1377'
p4855
aS'b2215'
p4856
aS'b0929'
p4857
aS'b0241'
p4858
asS'FEENTERtex'
p4859
(lp4860
g13
asS'EX_g3pc_LPAREN_e_RPAREN_'
p4861
(lp4862
g13
asS'AAMYLpp'
p4863
(lp4864
S'b3571'
p4865
asS'OHPBAT'
p4866
(lp4867
S'b0907'
p4868
asS'UDCPDPpp'
p4869
(lp4870
S'b3057'
p4871
aS'b0841'
p4872
aS'b1278'
p4873
asS'RNTR1c'
p4874
(lp4875
(lp4876
S'b2895'
p4877
aS'b4238'
p4878
aa(lp4879
S'b0684'
p4880
aS'b4238'
p4881
aa(lp4882
S'b2895'
p4883
aS'b3924'
p4884
aS'b4237'
p4885
aS'b4238'
p4886
aa(lp4887
S'b0684'
p4888
aS'b3924'
p4889
aS'b4237'
p4890
aS'b4238'
p4891
aasS'MN6PP'
p4892
(lp4893
S'b0822'
p4894
asS'CBL1abcpp'
p4895
(lp4896
(lp4897
S'b0158'
p4898
aS'b1709'
p4899
aS'b1711'
p4900
aasS'PAPA180'
p4901
(lp4902
S'b1278'
p4903
asS'PAPA181'
p4904
(lp4905
S'b1278'
p4906
asS'EX_melib_LPAREN_e_RPAREN_'
p4907
(lp4908
g13
asS'MALt2_3pp'
p4909
(lp4910
S'b4138'
p4911
aS'b4123'
p4912
asS'GLCUR1Ptex'
p4913
(lp4914
S'b2215'
p4915
aS'b0241'
p4916
aS'b1377'
p4917
aS'b0929'
p4918
asS'ALDD3y'
p4919
(lp4920
S'b3588'
p4921
asS'PRAIi'
p4922
(lp4923
S'b1262'
p4924
asS'PAPSR'
p4925
(lp4926
(lp4927
S'b2582'
p4928
aS'b2762'
p4929
aa(lp4930
S'b2762'
p4931
aS'b3781'
p4932
aasS'5DOAN'
p4933
(lp4934
S'b0159'
p4935
asS'EX_gtp_LPAREN_e_RPAREN_'
p4936
(lp4937
g13
asS'PLIPA1A161pp'
p4938
(lp4939
S'b3821'
p4940
asS'PRAIS'
p4941
(lp4942
S'b2499'
p4943
asS'EX_g1p_LPAREN_e_RPAREN_'
p4944
(lp4945
g13
asS'FA141ACPHi'
p4946
(lp4947
S'b0404'
p4948
asS'UREAtex'
p4949
(lp4950
S'b2215'
p4951
aS'b0241'
p4952
aS'b1377'
p4953
aS'b0929'
p4954
asS'FACOAL141t2pp'
p4955
(lp4956
S'b1805'
p4957
aS'b1701'
p4958
asS'NTD7pp'
p4959
(lp4960
S'b4055'
p4961
aS'b0480'
p4962
asS'FEOXAMtonex'
p4963
(lp4964
(lp4965
S'b0150'
p4966
aS'b1252'
p4967
aS'b3005'
p4968
aS'b3006'
p4969
aasS'DAPtex'
p4970
(lp4971
S'b2215'
p4972
aS'b0241'
p4973
aS'b1377'
p4974
aS'b0929'
p4975
asS'EX_gal1p_LPAREN_e_RPAREN_'
p4976
(lp4977
g13
asS'GLNtex'
p4978
(lp4979
S'b2215'
p4980
aS'b0241'
p4981
aS'b1377'
p4982
aS'b0929'
p4983
asS'EX_acmana_LPAREN_e_RPAREN_'
p4984
(lp4985
g13
asS'CSNtex'
p4986
(lp4987
S'b0241'
p4988
aS'b0929'
p4989
aS'b2215'
p4990
aS'b1377'
p4991
asS'PTRCtex'
p4992
(lp4993
S'b2215'
p4994
aS'b0241'
p4995
aS'b1377'
p4996
aS'b0929'
p4997
asS'NTRIR3pp'
p4998
(lp4999
(lp5000
S'b4070'
p5001
aS'b4071'
p5002
aS'b4072'
p5003
aS'b4073'
p5004
aasS'HXCT'
p5005
(lp5006
(lp5007
S'b2221'
p5008
aS'b2222'
p5009
aasS'3OAS60'
p5010
(lp5011
S'b1095'
p5012
aS'b2323'
p5013
asS'EX_alaala_LPAREN_e_RPAREN_'
p5014
(lp5015
g13
asS'EX_12ppd_R_LPAREN_e_RPAREN_'
p5016
(lp5017
g13
asS'EX_dopa_LPAREN_e_RPAREN_'
p5018
(lp5019
g13
asS'GLCptspp'
p5020
(lp5021
(lp5022
S'b1101'
p5023
aS'b2415'
p5024
aS'b2416'
p5025
aS'b2417'
p5026
aa(lp5027
S'b1621'
p5028
aS'b2415'
p5029
aS'b2416'
p5030
aS'b2417'
p5031
aa(lp5032
S'b1817'
p5033
aS'b1818'
p5034
aS'b1819'
p5035
aS'b2415'
p5036
aS'b2416'
p5037
aasS'GPDDA1'
p5038
(lp5039
S'b3449'
p5040
asS'PSSA161'
p5041
(lp5042
S'b2585'
p5043
asS'PSSA160'
p5044
(lp5045
S'b2585'
p5046
asS'EX_3cmp_LPAREN_e_RPAREN_'
p5047
(lp5048
g13
asS'PYK'
p5049
(lp5050
S'b1854'
p5051
aS'b1676'
p5052
asS'ATHRDHr'
p5053
(lp5054
S'b1539'
p5055
asS'EX_feoxam_LPAREN_e_RPAREN_'
p5056
(lp5057
g13
asS'LCARS'
p5058
(lp5059
S'b2799'
p5060
asS'LCARR'
p5061
(lp5062
g13
asS'PPA2'
p5063
(lp5064
S'b2502'
p5065
aS'b2744'
p5066
asS'XYLtex'
p5067
(lp5068
S'b2215'
p5069
aS'b0241'
p5070
aS'b1377'
p5071
aS'b0929'
p5072
asS'GUAtpp'
p5073
(lp5074
g13
asS'HACD5i'
p5075
(lp5076
S'b2341'
p5077
aS'b3846'
p5078
asS'SPMDAT1'
p5079
(lp5080
S'b1584'
p5081
asS'SPMDAT2'
p5082
(lp5083
S'b1584'
p5084
asS'LPLIPAL2A160'
p5085
(lp5086
S'b3825'
p5087
asS'LPLIPAL2A161'
p5088
(lp5089
S'b3825'
p5090
asS'ACOAD7f'
p5091
(lp5092
S'b0221'
p5093
asS'OPHHX3'
p5094
(lp5095
g13
asS'FRUptspp'
p5096
(lp5097
(lp5098
S'b2167'
p5099
aS'b2169'
p5100
aS'b2415'
p5101
aS'b2416'
p5102
aasS'CRNBTCT'
p5103
(lp5104
S'b0038'
p5105
asS'EX_leu_L_LPAREN_e_RPAREN_'
p5106
(lp5107
g13
asS'O2tex'
p5108
(lp5109
S'b2215'
p5110
aS'b0241'
p5111
aS'b1377'
p5112
aS'b0929'
p5113
asS'DHBD'
p5114
(lp5115
S'b0596'
p5116
asS'CBL1tonex'
p5117
(lp5118
(lp5119
S'b1252'
p5120
aS'b3005'
p5121
aS'b3006'
p5122
aS'b3966'
p5123
aasS'KARA1'
p5124
(lp5125
S'b3774'
p5126
asS'KARA2'
p5127
(lp5128
S'b3774'
p5129
asS'ILETA'
p5130
(lp5131
S'b3770'
p5132
asS'DHBS'
p5133
(lp5134
S'b0594'
p5135
asS'ALPATG160pp'
p5136
(lp5137
(lp5138
S'b0657'
p5139
aS'b1677'
p5140
aasS'EX_ile_L_LPAREN_e_RPAREN_'
p5141
(lp5142
g13
asS'CDAPPA141'
p5143
(lp5144
S'b3918'
p5145
asS'CDAPPA140'
p5146
(lp5147
S'b3918'
p5148
asS'ICHORT'
p5149
(lp5150
S'b0595'
p5151
asS'EX_h_LPAREN_e_RPAREN_'
p5152
(lp5153
g13
asS'DASYN140'
p5154
(lp5155
S'b0175'
p5156
asS'DASYN141'
p5157
(lp5158
S'b0175'
p5159
asS'DAMPtex'
p5160
(lp5161
S'b2215'
p5162
aS'b0241'
p5163
aS'b1377'
p5164
aS'b0929'
p5165
asS'SOTA'
p5166
(lp5167
S'b1748'
p5168
asS'PA181abcpp'
p5169
(lp5170
S'b0914'
p5171
asS'AMALT3'
p5172
(lp5173
S'b3416'
p5174
asS'EX_ethso3_LPAREN_e_RPAREN_'
p5175
(lp5176
g13
asS'AMALT1'
p5177
(lp5178
S'b3416'
p5179
asS'GLCRt2rpp'
p5180
(lp5181
S'b3127'
p5182
aS'b2789'
p5183
asS'DHPPDA2'
p5184
(lp5185
S'b0414'
p5186
asS'FALDH2'
p5187
(lp5188
S'b0356'
p5189
asS'2AGPA181tipp'
p5190
(lp5191
S'b2835'
p5192
asS'DOGULNR'
p5193
(lp5194
S'b3575'
p5195
asS'ADSS'
p5196
(lp5197
S'b4177'
p5198
asS'MALTtexi'
p5199
(lp5200
S'b4036'
p5201
asS'SHSL1'
p5202
(lp5203
S'b3939'
p5204
asS'G2PPpp'
p5205
(lp5206
S'b4055'
p5207
asS'PSCLYSt2pp'
p5208
(lp5209
S'b3370'
p5210
asS'MTHFR2'
p5211
(lp5212
S'b3941'
p5213
asS'ADSK'
p5214
(lp5215
S'b2750'
p5216
asS'ACSERtpp'
p5217
(lp5218
S'b2578'
p5219
aS'b1533'
p5220
asS'G3PGtex'
p5221
(lp5222
S'b2215'
p5223
aS'b0241'
p5224
aS'b1377'
p5225
aS'b0929'
p5226
asS'CLPNH161pp'
p5227
(lp5228
g13
asS'LPLIPAL2ATE161'
p5229
(lp5230
S'b3825'
p5231
asS'MALDDH'
p5232
(lp5233
S'b1800'
p5234
asS'GSPMDA'
p5235
(lp5236
S'b2988'
p5237
asS'HEPK2'
p5238
(lp5239
S'b3625'
p5240
asS'HEPK1'
p5241
(lp5242
S'b3630'
p5243
asS'ALATA_L'
p5244
(lp5245
g13
asS'PPPNtex'
p5246
(lp5247
S'b2215'
p5248
aS'b0241'
p5249
aS'b1377'
p5250
aS'b0929'
p5251
asS'MALTabcpp'
p5252
(lp5253
(lp5254
S'b4032'
p5255
aS'b4033'
p5256
aS'b4034'
p5257
aS'b4035'
p5258
aasS'SERTRS'
p5259
(lp5260
S'b0893'
p5261
asS'EX_2ddglcn_LPAREN_e_RPAREN_'
p5262
(lp5263
g13
asS'GSPMDS'
p5264
(lp5265
S'b2988'
p5266
asS'LPLIPAL2A180'
p5267
(lp5268
S'b3825'
p5269
asS'LPLIPAL2A181'
p5270
(lp5271
S'b3825'
p5272
asS'PACCOAL'
p5273
(lp5274
S'b1398'
p5275
asS'AIRC3'
p5276
(lp5277
S'b0523'
p5278
asS'DB4PS'
p5279
(lp5280
S'b3041'
p5281
asS'HISTP'
p5282
(lp5283
S'b2022'
p5284
asS'NTD6pp'
p5285
(lp5286
S'b0480'
p5287
aS'b4055'
p5288
asS'MPTG'
p5289
(lp5290
S'b0149'
p5291
aS'b2519'
p5292
aS'b3396'
p5293
asS'GLYCK'
p5294
(lp5295
S'b0514'
p5296
asS'G3PAT180'
p5297
(lp5298
S'b4041'
p5299
asS'G3PAT181'
p5300
(lp5301
S'b4041'
p5302
asS'LPLIPAL2G120'
p5303
(lp5304
S'b3825'
p5305
asS'GLYCL'
p5306
(lp5307
(lp5308
S'b0116'
p5309
aS'b2903'
p5310
aS'b2904'
p5311
aS'b2905'
p5312
aasS'HISTD'
p5313
(lp5314
S'b2020'
p5315
asS'MLDCP1App'
p5316
(lp5317
g13
asS'ASP1DC'
p5318
(lp5319
S'b0131'
p5320
asS'3PEPTtex'
p5321
(lp5322
S'b2215'
p5323
aS'b0241'
p5324
aS'b1377'
p5325
aS'b0929'
p5326
asS'CGLYabcpp'
p5327
(lp5328
(lp5329
S'b3540'
p5330
aS'b3541'
p5331
aS'b3542'
p5332
aS'b3543'
p5333
aS'b3544'
p5334
aasS'FE3HOXUtex'
p5335
(lp5336
g13
asS'XYLI1'
p5337
(lp5338
S'b3565'
p5339
asS'EX_g3ps_LPAREN_e_RPAREN_'
p5340
(lp5341
g13
asS'XYLI2'
p5342
(lp5343
S'b3565'
p5344
asS'THRTRS'
p5345
(lp5346
S'b1719'
p5347
asS'SSALx'
p5348
(lp5349
g13
asS'CRNDCAL2'
p5350
(lp5351
S'b0037'
p5352
asS'LPLIPAL1E181pp'
p5353
(lp5354
S'b0494'
p5355
asS'COLIPAabcpp'
p5356
(lp5357
S'b0914'
p5358
asS'PGPP140pp'
p5359
(lp5360
S'b1278'
p5361
aS'b0418'
p5362
asS'OMMBLHX3'
p5363
(lp5364
g13
asS'VALtex'
p5365
(lp5366
S'b2215'
p5367
aS'b0241'
p5368
aS'b1377'
p5369
aS'b0929'
p5370
asS'GUAD'
p5371
(lp5372
S'b2883'
p5373
asS'DSBGGT'
p5374
(lp5375
S'b0604'
p5376
asS'AIRC2'
p5377
(lp5378
S'b0522'
p5379
asS'PPPGO'
p5380
(lp5381
S'b3850'
p5382
asS'EX_cd2_LPAREN_e_RPAREN_'
p5383
(lp5384
g13
asS'FEOXAMabcpp'
p5385
(lp5386
(lp5387
S'b0151'
p5388
aS'b0152'
p5389
aS'b0153'
p5390
aasS'EX_xylu_L_LPAREN_e_RPAREN_'
p5391
(lp5392
g13
asS'HEMEOS'
p5393
(lp5394
S'b0428'
p5395
asS'AKGtex'
p5396
(lp5397
S'b2215'
p5398
aS'b0241'
p5399
aS'b1377'
p5400
aS'b0929'
p5401
asS'PTHRpp'
p5402
(lp5403
S'b4055'
p5404
asS'MN2t3pp'
p5405
(lp5406
S'b3915'
p5407
aS'b0752'
p5408
asS'HEPT2'
p5409
(lp5410
S'b3620'
p5411
asS'NTD12pp'
p5412
(lp5413
S'b4055'
p5414
aS'b0480'
p5415
asS'METtex'
p5416
(lp5417
S'b2215'
p5418
aS'b0241'
p5419
aS'b1377'
p5420
aS'b0929'
p5421
asS'PRASCSi'
p5422
(lp5423
S'b2476'
p5424
asS'RPE'
p5425
(lp5426
S'b3386'
p5427
aS'b4301'
p5428
asS'CMPN'
p5429
(lp5430
g13
asS'BETALDHx'
p5431
(lp5432
S'b0312'
p5433
asS'BETALDHy'
p5434
(lp5435
S'b0312'
p5436
asS'RPI'
p5437
(lp5438
S'b2914'
p5439
aS'b4090'
p5440
asS'EX_maltpt_LPAREN_e_RPAREN_'
p5441
(lp5442
g13
asS'PLIPA2G180pp'
p5443
(lp5444
S'b3821'
p5445
asS'MCOATA'
p5446
(lp5447
(lp5448
S'b1092'
p5449
aS'b1094'
p5450
aasS'G3PD2'
p5451
(lp5452
S'b3608'
p5453
asS'CO2tpp'
p5454
(lp5455
S's0001'
p5456
asS'G3PD7'
p5457
(lp5458
(lp5459
S'b2241'
p5460
aS'b2242'
p5461
aS'b2243'
p5462
aasS'G3PD6'
p5463
(lp5464
(lp5465
S'b2241'
p5466
aS'b2242'
p5467
aS'b2243'
p5468
aasS'G3PD5'
p5469
(lp5470
(lp5471
S'b2241'
p5472
aS'b2242'
p5473
aS'b2243'
p5474
aaS'b3426'
p5475
asS'CRNt8pp'
p5476
(lp5477
S'b0040'
p5478
asS'ASCBtex'
p5479
(lp5480
S'b2215'
p5481
aS'b0241'
p5482
aS'b1377'
p5483
aS'b0929'
p5484
asS'RMPA'
p5485
(lp5486
S'b3902'
p5487
asS'MDDEP3pp'
p5488
(lp5489
S'b3182'
p5490
aS'b2134'
p5491
aS'b2328'
p5492
asS'EX_ca2_LPAREN_e_RPAREN_'
p5493
(lp5494
g13
asS'EX_mal_L_LPAREN_e_RPAREN_'
p5495
(lp5496
g13
asS'PYDXNK'
p5497
(lp5498
S'b2418'
p5499
asS'MOAT3C'
p5500
(lp5501
S'b3624'
p5502
asS'G3PAT160'
p5503
(lp5504
S'b4041'
p5505
asS'G3PAT161'
p5506
(lp5507
S'b4041'
p5508
asS'LYXI'
p5509
(lp5510
S'b3903'
p5511
asS'3HAD40'
p5512
(lp5513
S'b0954'
p5514
aS'b0180'
p5515
asS'CU1Opp'
p5516
(lp5517
S'b0123'
p5518
asS'12PPDStpp'
p5519
(lp5520
g13
asS'EX_ocdcea_LPAREN_e_RPAREN_'
p5521
(lp5522
g13
asS'CLPNH180pp'
p5523
(lp5524
g13
asS'PG140abcpp'
p5525
(lp5526
S'b0914'
p5527
asS'EX_glyald_LPAREN_e_RPAREN_'
p5528
(lp5529
g13
asS'NAMNPP'
p5530
(lp5531
S'b0931'
p5532
asS'SBTtex'
p5533
(lp5534
S'b2215'
p5535
aS'b0241'
p5536
aS'b1377'
p5537
aS'b0929'
p5538
asS'NTPP11'
p5539
(lp5540
S'b2954'
p5541
asS'EX_udpglcur_LPAREN_e_RPAREN_'
p5542
(lp5543
g13
asS'LPLIPAL1E160pp'
p5544
(lp5545
S'b0494'
p5546
asS'ACOTA'
p5547
(lp5548
S'b3359'
p5549
aS'b1748'
p5550
asS'DAAD'
p5551
(lp5552
S'b1189'
p5553
asS'FALGTHLs'
p5554
(lp5555
S's0001'
p5556
asS'INSt2pp'
p5557
(lp5558
S'b2964'
p5559
asS'ALCD2x'
p5560
(lp5561
S'b1478'
p5562
aS'b0356'
p5563
aS'b1241'
p5564
asS'HSTPT'
p5565
(lp5566
S'b2021'
p5567
asS'ECAP2pp'
p5568
(lp5569
(lp5570
S'b3785'
p5571
aS'b3793'
p5572
aasS'CRNabcpp'
p5573
(lp5574
(lp5575
S'b2677'
p5576
aS'b2678'
p5577
aS'b2679'
p5578
aasS'ACANTHAT'
p5579
(lp5580
S'b1463'
p5581
asS'ATPPRT'
p5582
(lp5583
S'b2019'
p5584
asS'EX_ddca_LPAREN_e_RPAREN_'
p5585
(lp5586
g13
asS'EX_fecrm_un_LPAREN_e_RPAREN_'
p5587
(lp5588
g13
asS'EX_15dap_LPAREN_e_RPAREN_'
p5589
(lp5590
g13
asS'GLNabcpp'
p5591
(lp5592
(lp5593
S'b0809'
p5594
aS'b0810'
p5595
aS'b0811'
p5596
aasS'EX_lipa_cold_LPAREN_e_RPAREN_'
p5597
(lp5598
g13
asS'PE140abcpp'
p5599
(lp5600
S'b0914'
p5601
asS'FALDtpp'
p5602
(lp5603
S's0001'
p5604
asS'GALURt2rpp'
p5605
(lp5606
S'b3093'
p5607
asS'NDPK2'
p5608
(lp5609
S'b2518'
p5610
aS'b0474'
p5611
asS'LYSt3pp'
p5612
(lp5613
S'b2923'
p5614
asS'3CMPtex'
p5615
(lp5616
S'b2215'
p5617
aS'b0241'
p5618
aS'b1377'
p5619
aS'b0929'
p5620
asS'DHQS'
p5621
(lp5622
S'b3389'
p5623
asS'ACGS'
p5624
(lp5625
S'b2818'
p5626
asS'PGP141abcpp'
p5627
(lp5628
S'b0914'
p5629
asS'UACGALPpp'
p5630
(lp5631
S'b0480'
p5632
asS'DADNtex'
p5633
(lp5634
S'b0411'
p5635
asS'GLYC2Ptex'
p5636
(lp5637
S'b2215'
p5638
aS'b0241'
p5639
aS'b1377'
p5640
aS'b0929'
p5641
asS'PLIPA1A160pp'
p5642
(lp5643
S'b3821'
p5644
asS'ACGK'
p5645
(lp5646
S'b3959'
p5647
asS'SSALy'
p5648
(lp5649
S'b2661'
p5650
asS'TGBPA'
p5651
(lp5652
(lp5653
S'b3132'
p5654
aS'b3137'
p5655
aa(lp5656
S'b2095'
p5657
aS'b2096'
p5658
aasS'EX_tartr_L_LPAREN_e_RPAREN_'
p5659
(lp5660
g13
asS'DM_AACALD'
p5661
(lp5662
g13
asS'ENTERES2'
p5663
(lp5664
S'b0585'
p5665
asS'GPDDA4pp'
p5666
(lp5667
S'b2239'
p5668
asS'GK1'
p5669
(lp5670
S'b3648'
p5671
asS'EX_cbl1_LPAREN_e_RPAREN_'
p5672
(lp5673
g13
asS'SGSAD'
p5674
(lp5675
S'b1746'
p5676
asS'OCDCEAtexi'
p5677
(lp5678
S'b2344'
p5679
asS'FECRMUtex'
p5680
(lp5681
g13
asS'HYD2pp'
p5682
(lp5683
(lp5684
S'b0972'
p5685
aS'b0973'
p5686
aS'b0974'
p5687
aa(lp5688
S'b2994'
p5689
aS'b2997'
p5690
aasS'FLVRx'
p5691
(lp5692
S'b3844'
p5693
asS'SERD_D'
p5694
(lp5695
S'b2366'
p5696
asS'FACOAE161'
p5697
(lp5698
S'b0452'
p5699
asS'FACOAE160'
p5700
(lp5701
S'b0452'
p5702
asS'DXPRIi'
p5703
(lp5704
S'b0173'
p5705
asS'GLYALDtex'
p5706
(lp5707
S'b2215'
p5708
aS'b0241'
p5709
aS'b1377'
p5710
aS'b0929'
p5711
asS'FECRMtonex'
p5712
(lp5713
(lp5714
S'b0150'
p5715
aS'b1252'
p5716
aS'b3005'
p5717
aS'b3006'
p5718
aasS'ALDD2y'
p5719
(lp5720
S'b3588'
p5721
asS'GRTT'
p5722
(lp5723
S'b0421'
p5724
asS'G6Ptex'
p5725
(lp5726
S'b2215'
p5727
aS'b0241'
p5728
aS'b1377'
p5729
aS'b0929'
p5730
asS'NO2tex'
p5731
(lp5732
S'b2215'
p5733
aS'b0241'
p5734
aS'b1377'
p5735
aS'b0929'
p5736
asS'EX_rib_D_LPAREN_e_RPAREN_'
p5737
(lp5738
g13
asS'GCALDD'
p5739
(lp5740
S'b1415'
p5741
asS'23PDE4pp'
p5742
(lp5743
S'b4213'
p5744
asS'PSERtex'
p5745
(lp5746
S'b2215'
p5747
aS'b0241'
p5748
aS'b1377'
p5749
aS'b0929'
p5750
asS'SERD_L'
p5751
(lp5752
S'b4471'
p5753
aS'b1814'
p5754
aS'b3708'
p5755
aS'b2797'
p5756
asS'ALLTNt2rpp'
p5757
(lp5758
S'b0511'
p5759
asS'EX_lac_L_LPAREN_e_RPAREN_'
p5760
(lp5761
g13
asS'CYTDtex'
p5762
(lp5763
S'b2215'
p5764
aS'b0241'
p5765
aS'b1377'
p5766
aS'b0929'
p5767
asS'EX_crn_LPAREN_e_RPAREN_'
p5768
(lp5769
g13
asS'L_LACD2'
p5770
(lp5771
S'b3605'
p5772
asS'OXGDC2'
p5773
(lp5774
S'b2264'
p5775
asS'2AGPGAT141'
p5776
(lp5777
S'b2836'
p5778
asS'2AGPGAT140'
p5779
(lp5780
S'b2836'
p5781
asS'FA140ACPHi'
p5782
(lp5783
S'b0404'
p5784
asS'CU2abcpp'
p5785
(lp5786
S'b3469'
p5787
asS'H2tex'
p5788
(lp5789
S'b0929'
p5790
aS'b1377'
p5791
aS'b0241'
p5792
aS'b2215'
p5793
asS'MELIBtex'
p5794
(lp5795
S'b2215'
p5796
aS'b0241'
p5797
aS'b1377'
p5798
aS'b0929'
p5799
asS'EX_dca_LPAREN_e_RPAREN_'
p5800
(lp5801
g13
asS'ACBIPGT'
p5802
(lp5803
S'b1993'
p5804
asS'NO3R2bpp'
p5805
(lp5806
(lp5807
S'b2202'
p5808
aS'b2203'
p5809
aS'b2206'
p5810
aasS'TMK'
p5811
(lp5812
S'b1106'
p5813
asS'FUMt2_3pp'
p5814
(lp5815
S'b4138'
p5816
aS'b0621'
p5817
aS'b4123'
p5818
asS'GLUCYS'
p5819
(lp5820
S'b2688'
p5821
asS'DUMPtex'
p5822
(lp5823
S'b2215'
p5824
aS'b0241'
p5825
aS'b1377'
p5826
aS'b0929'
p5827
asS'DSBDR'
p5828
(lp5829
(lp5830
S'b2582'
p5831
aS'b4136'
p5832
aa(lp5833
S'b3781'
p5834
aS'b4136'
p5835
aasS'NTRIR2x'
p5836
(lp5837
(lp5838
S'b3365'
p5839
aS'b3366'
p5840
aasS'DASYN180'
p5841
(lp5842
S'b0175'
p5843
asS'ALAALAabcpp'
p5844
(lp5845
(lp5846
S'b1483'
p5847
aS'b1484'
p5848
aS'b1485'
p5849
aS'b1486'
p5850
aS'b1487'
p5851
aa(lp5852
S'b3540'
p5853
aS'b3541'
p5854
aS'b3542'
p5855
aS'b3543'
p5856
aS'b3544'
p5857
aasS'TALA'
p5858
(lp5859
S'b0008'
p5860
aS'b2464'
p5861
asS'GOFUCR'
p5862
(lp5863
S'b2052'
p5864
asS'NADH16pp'
p5865
(lp5866
(lp5867
S'b2276'
p5868
aS'b2277'
p5869
aS'b2278'
p5870
aS'b2279'
p5871
aS'b2280'
p5872
aS'b2281'
p5873
aS'b2282'
p5874
aS'b2283'
p5875
aS'b2284'
p5876
aS'b2285'
p5877
aS'b2286'
p5878
aS'b2287'
p5879
aS'b2288'
p5880
aasS'ARGt3pp'
p5881
(lp5882
S'b2923'
p5883
asS'HSST'
p5884
(lp5885
S'b4013'
p5886
asS'HACD6i'
p5887
(lp5888
S'b2341'
p5889
aS'b3846'
p5890
asS'3OAR141'
p5891
(lp5892
S'b1093'
p5893
asS'3OAR140'
p5894
(lp5895
S'b1093'
p5896
asS'LYXtex'
p5897
(lp5898
S'b2215'
p5899
aS'b0241'
p5900
aS'b1377'
p5901
aS'b0929'
p5902
asS'DCYTt2pp'
p5903
(lp5904
S'b2964'
p5905
aS'b2393'
p5906
asS'LIPAtex'
p5907
(lp5908
g13
asS'PAPSR2'
p5909
(lp5910
(lp5911
S'b2762'
p5912
aS'b3610'
p5913
aa(lp5914
S'b0849'
p5915
aS'b2762'
p5916
aa(lp5917
S'b1654'
p5918
aS'b2762'
p5919
aa(lp5920
S'b1064'
p5921
aS'b2762'
p5922
aasS'THIORDXi'
p5923
(lp5924
(lp5925
S'b2480'
p5926
aS'b3781'
p5927
aa(lp5928
S'b2480'
p5929
aS'b2582'
p5930
aasS'PUNP4'
p5931
(lp5932
S'b2407'
p5933
aS'b4384'
p5934
asS'IDONt2rpp'
p5935
(lp5936
S'b4265'
p5937
asS'PUNP6'
p5938
(lp5939
S'b4384'
p5940
aS'b2407'
p5941
asS'PUNP7'
p5942
(lp5943
S'b2407'
p5944
asS'PUNP1'
p5945
(lp5946
S'b4384'
p5947
asS'PUNP2'
p5948
(lp5949
S'b4384'
p5950
asS'PUNP3'
p5951
(lp5952
S'b2407'
p5953
aS'b4384'
p5954
asS'LPLIPAL2E180'
p5955
(lp5956
S'b3825'
p5957
asS'LPLIPAL2E181'
p5958
(lp5959
S'b3825'
p5960
asS'EX_thym_LPAREN_e_RPAREN_'
p5961
(lp5962
g13
asS'PMPK'
p5963
(lp5964
S'b2103'
p5965
asS'ASPO3'
p5966
(lp5967
S'b2574'
p5968
asS'34dhpactex'
p5969
(lp5970
S'b2215'
p5971
aS'b0241'
p5972
aS'b1377'
p5973
aS'b0929'
p5974
asS'ASPO5'
p5975
(lp5976
S'b2574'
p5977
asS'ASPO6'
p5978
(lp5979
S'b2574'
p5980
asS'EX_thr_L_LPAREN_e_RPAREN_'
p5981
(lp5982
g13
asS'GLYt4pp'
p5983
(lp5984
S'b0007'
p5985
asS'23PDE7pp'
p5986
(lp5987
S'b4213'
p5988
asS'EX_udpgal_LPAREN_e_RPAREN_'
p5989
(lp5990
g13
asS'TTDCEAtexi'
p5991
(lp5992
S'b2344'
p5993
asS'MDH3'
p5994
(lp5995
S'b2210'
p5996
asS'MDH2'
p5997
(lp5998
S'b2210'
p5999
asS'EX_malthx_LPAREN_e_RPAREN_'
p6000
(lp6001
g13
asS'EX_na1_LPAREN_e_RPAREN_'
p6002
(lp6003
g13
asS'PTRCabcpp'
p6004
(lp6005
(lp6006
S'b1123'
p6007
aS'b1124'
p6008
aS'b1125'
p6009
aS'b1126'
p6010
aa(lp6011
S'b1440'
p6012
aS'b1441'
p6013
aS'b1442'
p6014
aS'b1443'
p6015
aa(lp6016
S'b0854'
p6017
aS'b0855'
p6018
aS'b0856'
p6019
aS'b0857'
p6020
aasS'R5Ptex'
p6021
(lp6022
S'b2215'
p6023
aS'b0241'
p6024
aS'b1377'
p6025
aS'b0929'
p6026
asS'PGLYCP'
p6027
(lp6028
S'b3385'
p6029
asS'DMSOR1'
p6030
(lp6031
(lp6032
S'b0894'
p6033
aS'b0895'
p6034
aS'b0896'
p6035
aa(lp6036
S'b1587'
p6037
aS'b1588'
p6038
aS'b1589'
p6039
aS'b1590'
p6040
aasS'SUCDi'
p6041
(lp6042
(lp6043
S'b0721'
p6044
aS'b0722'
p6045
aS'b0723'
p6046
aS'b0724'
p6047
aasS'NADTRHD'
p6048
(lp6049
(lp6050
S'b1602'
p6051
aS'b1603'
p6052
aaS'b3962'
p6053
asS'IPPS'
p6054
(lp6055
S'b0074'
p6056
asS'COBALT2t3pp'
p6057
(lp6058
S'b3915'
p6059
aS'b0752'
p6060
asS'PGP160abcpp'
p6061
(lp6062
S'b0914'
p6063
asS'ARBtex'
p6064
(lp6065
S'b2215'
p6066
aS'b0241'
p6067
aS'b1377'
p6068
aS'b0929'
p6069
asS'PG181abcpp'
p6070
(lp6071
S'b0914'
p6072
asS'EX_ppt_LPAREN_e_RPAREN_'
p6073
(lp6074
g13
asS'GAL1Ptex'
p6075
(lp6076
S'b2215'
p6077
aS'b0241'
p6078
aS'b1377'
p6079
aS'b0929'
p6080
asS'AGM3Pt2pp'
p6081
(lp6082
S'b0433'
p6083
asS'DHPTDCs'
p6084
(lp6085
S's0001'
p6086
asS'3KGK'
p6087
(lp6088
S'b3580'
p6089
asS'EX_ac_LPAREN_e_RPAREN_'
p6090
(lp6091
g13
asS'EX_thm_LPAREN_e_RPAREN_'
p6092
(lp6093
g13
asS'FRUURtex'
p6094
(lp6095
S'b2215'
p6096
aS'b0241'
p6097
aS'b1377'
p6098
aS'b0929'
p6099
asS'CLt3_2pp'
p6100
(lp6101
S'b1592'
p6102
aS'b0155'
p6103
asS'EX_arab_L_LPAREN_e_RPAREN_'
p6104
(lp6105
g13
asS'GAL1PPpp'
p6106
(lp6107
S'b1002'
p6108
asS'EAR100x'
p6109
(lp6110
S'b1288'
p6111
asS'NTPTP1'
p6112
(lp6113
S'b0160'
p6114
asS'NTPTP2'
p6115
(lp6116
S'b0160'
p6117
asS'DAGK161'
p6118
(lp6119
S'b4042'
p6120
asS'DAGK160'
p6121
(lp6122
S'b4042'
p6123
asS'PSD120'
p6124
(lp6125
S'b4160'
p6126
asS'FEOXAMUtex'
p6127
(lp6128
g13
asS'EX_aso3_LPAREN_e_RPAREN_'
p6129
(lp6130
g13
asS'ZN2abcpp'
p6131
(lp6132
S'b3469'
p6133
asS'PSERT'
p6134
(lp6135
S'b0907'
p6136
asS'CUt3'
p6137
(lp6138
(lp6139
S'b0572'
p6140
aS'b0573'
p6141
aS'b0574'
p6142
aS'b0575'
p6143
aasS'METSOX1tex'
p6144
(lp6145
S'b2215'
p6146
aS'b0241'
p6147
aS'b1377'
p6148
aS'b0929'
p6149
asS'EX_dha_LPAREN_e_RPAREN_'
p6150
(lp6151
g13
asS'H2Otpp'
p6152
(lp6153
S's0001'
p6154
aS'b0875'
p6155
asS'MNtex'
p6156
(lp6157
S'b2215'
p6158
aS'b0241'
p6159
aS'b1377'
p6160
aS'b0929'
p6161
asS'AICART'
p6162
(lp6163
S'b4006'
p6164
asS'TAURtex'
p6165
(lp6166
S'b2215'
p6167
aS'b0241'
p6168
aS'b1377'
p6169
aS'b0929'
p6170
asS'NNDPR'
p6171
(lp6172
S'b0109'
p6173
asS'EX_tym_LPAREN_e_RPAREN_'
p6174
(lp6175
g13
asS'ACNML'
p6176
(lp6177
S'b3225'
p6178
asS'PNTOt4pp'
p6179
(lp6180
S'b3258'
p6181
asS'RIBabcpp'
p6182
(lp6183
(lp6184
S'b4227'
p6185
aS'b4230'
p6186
aS'b4231'
p6187
aS'b4485'
p6188
aa(lp6189
S'b4086'
p6190
aS'b4087'
p6191
aS'b4088'
p6192
aa(lp6193
S'b3748'
p6194
aS'b3749'
p6195
aS'b3750'
p6196
aS'b3751'
p6197
aasS'MACPD'
p6198
(lp6199
S'b2323'
p6200
asS'SPMDabcpp'
p6201
(lp6202
(lp6203
S'b1440'
p6204
aS'b1441'
p6205
aS'b1442'
p6206
aS'b1443'
p6207
aa(lp6208
S'b1123'
p6209
aS'b1124'
p6210
aS'b1125'
p6211
aS'b1126'
p6212
aasS'ALDD4'
p6213
(lp6214
g13
asS'PTPATi'
p6215
(lp6216
S'b3634'
p6217
asS'AHCYSNS'
p6218
(lp6219
S'b0159'
p6220
asS'GGPTRCO'
p6221
(lp6222
S'b1301'
p6223
asS'AMALT2'
p6224
(lp6225
S'b3416'
p6226
asS'TKT2'
p6227
(lp6228
S'b2465'
p6229
aS'b2935'
p6230
asS'TKT1'
p6231
(lp6232
S'b2935'
p6233
aS'b2465'
p6234
asS'HYXNtex'
p6235
(lp6236
S'b2215'
p6237
aS'b0241'
p6238
aS'b1377'
p6239
aS'b0929'
p6240
asS'GLCATr'
p6241
(lp6242
S'b0459'
p6243
asS'PNTK'
p6244
(lp6245
S'b3974'
p6246
asS'FE2t2pp'
p6247
(lp6248
S'b2392'
p6249
asS'EX_no3_LPAREN_e_RPAREN_'
p6250
(lp6251
g13
asS'GGPTRCS'
p6252
(lp6253
S'b1297'
p6254
asS'NTRIR4pp'
p6255
(lp6256
(lp6257
S'b4070'
p6258
aS'b4071'
p6259
aS'b4072'
p6260
aS'b4073'
p6261
aasS'SERAT'
p6262
(lp6263
S'b3607'
p6264
asS'CYStpp'
p6265
(lp6266
S'b2578'
p6267
aS'b1533'
p6268
asS'EX_cgly_LPAREN_e_RPAREN_'
p6269
(lp6270
g13
asS'CHRPL'
p6271
(lp6272
S'b4039'
p6273
asS'CYNTtex'
p6274
(lp6275
S'b2215'
p6276
aS'b0241'
p6277
aS'b1377'
p6278
aS'b0929'
p6279
asS'PPM2'
p6280
(lp6281
S'b4383'
p6282
asS'PMDPHT'
p6283
(lp6284
g13
asS'ACALD'
p6285
(lp6286
S'b1241'
p6287
aS'b0351'
p6288
asS'METDabcpp'
p6289
(lp6290
(lp6291
S'b0197'
p6292
aS'b0198'
p6293
aS'b0199'
p6294
aasS'EX_tma_LPAREN_e_RPAREN_'
p6295
(lp6296
g13
asS'ACt2rpp'
p6297
(lp6298
g13
asS'O16GLCT2'
p6299
(lp6300
g13
asS'MDDCP5pp'
p6301
(lp6302
S'b2010'
p6303
aS'b0632'
p6304
aS'b0839'
p6305
aS'b3182'
p6306
asS'23CCMPtex'
p6307
(lp6308
S'b2215'
p6309
aS'b0241'
p6310
aS'b1377'
p6311
aS'b0929'
p6312
asS'O16GLCT1'
p6313
(lp6314
S'b2032'
p6315
asS'GLYCK2'
p6316
(lp6317
S'b3124'
p6318
asS'G6PDA'
p6319
(lp6320
S'b0678'
p6321
asS'SPODMpp'
p6322
(lp6323
S'b1646'
p6324
asS'MPTG2'
p6325
(lp6326
S'b0149'
p6327
aS'b3396'
p6328
aS'b2519'
p6329
asS'MLTG5'
p6330
(lp6331
S'b0403'
p6332
asS'MLTG4'
p6333
(lp6334
S'b0403'
p6335
asS'K2L4Atex'
p6336
(lp6337
g13
asS'MLTG1'
p6338
(lp6339
S'b0403'
p6340
asS'MLTG3'
p6341
(lp6342
S'b0403'
p6343
asS'MLTG2'
p6344
(lp6345
S'b0403'
p6346
asS'EX_glyb_LPAREN_e_RPAREN_'
p6347
(lp6348
g13
asS'DKGLCNR1'
p6349
(lp6350
S'b3012'
p6351
aS'b0207'
p6352
asS'NPHS'
p6353
(lp6354
S'b2262'
p6355
asS'HXAND'
p6356
(lp6357
(lp6358
S'b2866'
p6359
aS'b2867'
p6360
aS'b2868'
p6361
aasS'G1Ptex'
p6362
(lp6363
S'b2215'
p6364
aS'b0241'
p6365
aS'b1377'
p6366
aS'b0929'
p6367
asS'EX_so4_LPAREN_e_RPAREN_'
p6368
(lp6369
g13
asS'EX_halipa_LPAREN_e_RPAREN_'
p6370
(lp6371
g13
asS'GLCRtex'
p6372
(lp6373
S'b2215'
p6374
aS'b0241'
p6375
aS'b1377'
p6376
aS'b0929'
p6377
asS'H2St1pp'
p6378
(lp6379
S's0001'
p6380
asS'G3PIabcpp'
p6381
(lp6382
(lp6383
S'b3450'
p6384
aS'b3451'
p6385
aS'b3452'
p6386
aS'b3453'
p6387
aasS'LDH_D'
p6388
(lp6389
S'b2133'
p6390
aS'b1380'
p6391
asS'RBK'
p6392
(lp6393
S'b3752'
p6394
asS'EX_udpacgal_LPAREN_e_RPAREN_'
p6395
(lp6396
g13
asS'ECAtpp'
p6397
(lp6398
S'b3792'
p6399
asS'OMCDC'
p6400
(lp6401
S'b0073'
p6402
asS'CBIuabcpp'
p6403
(lp6404
(lp6405
S'b0158'
p6406
aS'b1709'
p6407
aS'b1711'
p6408
aasS'O16AUNDtpp'
p6409
(lp6410
S'b2037'
p6411
asS'SELCYSS'
p6412
(lp6413
S'b3591'
p6414
asS'SARCOX'
p6415
(lp6416
S'b1059'
p6417
asS'EX_gdp_LPAREN_e_RPAREN_'
p6418
(lp6419
g13
asS'ACS'
p6420
(lp6421
S'b4069'
p6422
asS'URItex'
p6423
(lp6424
S'b0411'
p6425
asS'UHGADA'
p6426
(lp6427
S'b0096'
p6428
asS'3PEPTabcpp'
p6429
(lp6430
(lp6431
S'b1244'
p6432
aS'b1245'
p6433
aS'b1246'
p6434
aS'b1247'
p6435
aS'b1329'
p6436
aasS'ME2'
p6437
(lp6438
S'b2463'
p6439
asS'GALCTNt2pp'
p6440
(lp6441
S'b3691'
p6442
asS'EX_etha_LPAREN_e_RPAREN_'
p6443
(lp6444
g13
asS'14GLUCANabcpp'
p6445
(lp6446
(lp6447
S'b4032'
p6448
aS'b4033'
p6449
aS'b4034'
p6450
aS'b4035'
p6451
aasS'ASPT'
p6452
(lp6453
S'b4139'
p6454
asS'EX_gua_LPAREN_e_RPAREN_'
p6455
(lp6456
g13
asS'FDMO'
p6457
(lp6458
S'b0935'
p6459
asS'EX_fe3hox_un_LPAREN_e_RPAREN_'
p6460
(lp6461
g13
asS'AGMt2pp'
p6462
(lp6463
S'b0433'
p6464
asS'PROGLYabcpp'
p6465
(lp6466
(lp6467
S'b3540'
p6468
aS'b3541'
p6469
aS'b3542'
p6470
aS'b3543'
p6471
aS'b3544'
p6472
aasS'CLPNH160pp'
p6473
(lp6474
g13
asS'PYDXPP'
p6475
(lp6476
g13
asS'NHFRBO'
p6477
(lp6478
(lp6479
S'b2710'
p6480
aS'b2711'
p6481
aasS'EAR60x'
p6482
(lp6483
S'b1288'
p6484
asS'EAR60y'
p6485
(lp6486
S'b1288'
p6487
asS'CDAPPA161'
p6488
(lp6489
S'b3918'
p6490
asS'CDAPPA160'
p6491
(lp6492
S'b3918'
p6493
asS'RMNtex'
p6494
(lp6495
S'b2215'
p6496
aS'b0241'
p6497
aS'b1377'
p6498
aS'b0929'
p6499
asS'PGPP120'
p6500
(lp6501
S'b0418'
p6502
aS'b1278'
p6503
asS'MLDCP2App'
p6504
(lp6505
g13
asS'DASYN120'
p6506
(lp6507
S'b0175'
p6508
asS'CYTBDpp'
p6509
(lp6510
(lp6511
S'b0978'
p6512
aS'b0979'
p6513
aa(lp6514
S'b0733'
p6515
aS'b0734'
p6516
aasS'MTHFC'
p6517
(lp6518
S'b0529'
p6519
asS'EX_metsox_R_L_LPAREN_e_RPAREN_'
p6520
(lp6521
g13
asS'MTHFD'
p6522
(lp6523
S'b0529'
p6524
asS'TRPS2'
p6525
(lp6526
(lp6527
S'b1260'
p6528
aS'b1261'
p6529
aasS'TRPS3'
p6530
(lp6531
(lp6532
S'b1260'
p6533
aS'b1261'
p6534
aasS'TRPS1'
p6535
(lp6536
(lp6537
S'b1260'
p6538
aS'b1261'
p6539
aasS'CD2t3pp'
p6540
(lp6541
S'b0752'
p6542
aS'b3915'
p6543
asS'FE2t3pp'
p6544
(lp6545
S'b3915'
p6546
asS'DHAtex'
p6547
(lp6548
S'b2215'
p6549
aS'b0241'
p6550
aS'b1377'
p6551
aS'b0929'
p6552
asS'GLXCL'
p6553
(lp6554
S'b0507'
p6555
asS'DURIt2pp'
p6556
(lp6557
S'b2393'
p6558
aS'b2964'
p6559
asS'IMPtex'
p6560
(lp6561
S'b2215'
p6562
aS'b0241'
p6563
aS'b1377'
p6564
aS'b0929'
p6565
asS'3HAD60'
p6566
(lp6567
S'b0954'
p6568
aS'b0180'
p6569
asS'OMPDC'
p6570
(lp6571
S'b1281'
p6572
asS'2AGPEAT161'
p6573
(lp6574
S'b2836'
p6575
asS'2AGPEAT160'
p6576
(lp6577
S'b2836'
p6578
asS'TDP'
p6579
(lp6580
S'b1134'
p6581
asS'OHPHM'
p6582
(lp6583
S'b2232'
p6584
asS'UACGAMPpp'
p6585
(lp6586
S'b0480'
p6587
asS'PPAt4pp'
p6588
(lp6589
S'b1015'
p6590
asS'TYROXDApp'
p6591
(lp6592
S'b1386'
p6593
asS'EX_mn2_LPAREN_e_RPAREN_'
p6594
(lp6595
g13
asS'NADDP'
p6596
(lp6597
S'b3996'
p6598
aS'b2411'
p6599
asS'PSP_Lpp'
p6600
(lp6601
S'b4055'
p6602
asS'GTPtex'
p6603
(lp6604
S'b2215'
p6605
aS'b0241'
p6606
aS'b1377'
p6607
aS'b0929'
p6608
asS'R1PK'
p6609
(lp6610
g13
asS'AOBUTDs'
p6611
(lp6612
S's0001'
p6613
asS'EX_dgmp_LPAREN_e_RPAREN_'
p6614
(lp6615
g13
asS'EAR181y'
p6616
(lp6617
S'b1288'
p6618
asS'EAR181x'
p6619
(lp6620
S'b1288'
p6621
asS'MDDCP4pp'
p6622
(lp6623
S'b2010'
p6624
aS'b0632'
p6625
aS'b0839'
p6626
aS'b3182'
p6627
asS'NTD9pp'
p6628
(lp6629
S'b0480'
p6630
aS'b4055'
p6631
asS'CYANSTpp'
p6632
(lp6633
S'b1308'
p6634
asS'GLYCLTDy'
p6635
(lp6636
S'b1033'
p6637
aS'b3553'
p6638
asS'HSDy'
p6639
(lp6640
S'b3940'
p6641
aS'b0002'
p6642
asS'XYLK2'
p6643
(lp6644
S'b0063'
p6645
aS'b3580'
p6646
asS'NOtpp'
p6647
(lp6648
S's0001'
p6649
asS'GLYCLTDx'
p6650
(lp6651
S'b3553'
p6652
aS'b1033'
p6653
asS'FE2abcpp'
p6654
(lp6655
S'b3409'
p6656
asS'NMNDA'
p6657
(lp6658
g13
asS'EX_all_D_LPAREN_e_RPAREN_'
p6659
(lp6660
g13
asS'GMHEPPA'
p6661
(lp6662
S'b0200'
p6663
asS'MCPST'
p6664
(lp6665
S'b2521'
p6666
asS'CDAPPA181'
p6667
(lp6668
S'b3918'
p6669
asS'CDAPPA180'
p6670
(lp6671
S'b3918'
p6672
asS'FUCtex'
p6673
(lp6674
S'b2215'
p6675
aS'b0241'
p6676
aS'b1377'
p6677
aS'b0929'
p6678
asS'PGMT'
p6679
(lp6680
S'b0688'
p6681
aS'b2690'
p6682
asS'EX_co2_LPAREN_e_RPAREN_'
p6683
(lp6684
g13
asS'GLYAT'
p6685
(lp6686
S'b3617'
p6687
asS'ANHGMtex'
p6688
(lp6689
S'b2215'
p6690
aS'b0241'
p6691
aS'b1377'
p6692
aS'b0929'
p6693
asS'EX_malt_LPAREN_e_RPAREN_'
p6694
(lp6695
g13
asS'Ec_biomass_iAF1260_core_59p81M'
p6696
(lp6697
g13
asS'GLYCLTtex'
p6698
(lp6699
S'b2215'
p6700
aS'b0241'
p6701
aS'b1377'
p6702
aS'b0929'
p6703
asS'ZNabcpp'
p6704
(lp6705
(lp6706
S'b1857'
p6707
aS'b1858'
p6708
aS'b1859'
p6709
aasS'LPLIPAL2ATE141'
p6710
(lp6711
S'b3825'
p6712
asS'EX_g3pi_LPAREN_e_RPAREN_'
p6713
(lp6714
g13
asS'UAMAGS'
p6715
(lp6716
S'b0088'
p6717
asS'FRUURt2rpp'
p6718
(lp6719
S'b4321'
p6720
asS'ADNtex'
p6721
(lp6722
S'b0411'
p6723
asS'DHPS2'
p6724
(lp6725
S'b3177'
p6726
asS'LPLIPAL1E141pp'
p6727
(lp6728
S'b0494'
p6729
asS'FACOAE60'
p6730
(lp6731
S'b0452'
p6732
asS'DHBSH'
p6733
(lp6734
g13
asS'GLYOX3'
p6735
(lp6736
g13
asS'PLIPA1E180pp'
p6737
(lp6738
S'b3821'
p6739
asS'METSOXR2'
p6740
(lp6741
(lp6742
S'b1778'
p6743
aS'b2582'
p6744
aa(lp6745
S'b1778'
p6746
aS'b3781'
p6747
aasS'TMPPP'
p6748
(lp6749
S'b3993'
p6750
asS'ARGORNt7pp'
p6751
(lp6752
S'b1605'
p6753
asS'RNTR4c'
p6754
(lp6755
(lp6756
S'b2895'
p6757
aS'b4238'
p6758
aa(lp6759
S'b0684'
p6760
aS'b4238'
p6761
aa(lp6762
S'b0684'
p6763
aS'b3924'
p6764
aS'b4237'
p6765
aS'b4238'
p6766
aa(lp6767
S'b2895'
p6768
aS'b3924'
p6769
aS'b4237'
p6770
aS'b4238'
p6771
aasS'UNK3'
p6772
(lp6773
g13
asS'PLIPA1G140pp'
p6774
(lp6775
S'b3821'
p6776
asS'G1PACT'
p6777
(lp6778
S'b3730'
p6779
asS'FACOAL80t2pp'
p6780
(lp6781
S'b1805'
p6782
aS'b1701'
p6783
asS'PGSA161'
p6784
(lp6785
S'b1912'
p6786
asS'FACOAE80'
p6787
(lp6788
S'b0452'
p6789
asS'TRE6PH'
p6790
(lp6791
S'b4239'
p6792
asS'OMBZLM'
p6793
(lp6794
S'b3833'
p6795
asS'TRE6PP'
p6796
(lp6797
S'b1897'
p6798
asS'TRE6PS'
p6799
(lp6800
S'b1896'
p6801
asS'THRt4pp'
p6802
(lp6803
S'b3089'
p6804
asS'THDPS'
p6805
(lp6806
S'b0166'
p6807
asS'DMQMT'
p6808
(lp6809
S'b2232'
p6810
asS'GALtex'
p6811
(lp6812
S'b2215'
p6813
aS'b0241'
p6814
aS'b1377'
p6815
aS'b0929'
p6816
asS'4PCPpp'
p6817
(lp6818
g13
asS'ILEt2rpp'
p6819
(lp6820
S'b0401'
p6821
asS'PPNCL2'
p6822
(lp6823
S'b3639'
p6824
asS'3OAR180'
p6825
(lp6826
S'b1093'
p6827
asS'EX_gal_LPAREN_e_RPAREN_'
p6828
(lp6829
g13
asS'G3PAT140'
p6830
(lp6831
S'b4041'
p6832
asS'H2tpp'
p6833
(lp6834
S's0001'
p6835
asS'CITtex'
p6836
(lp6837
S'b2215'
p6838
aS'b0241'
p6839
aS'b1377'
p6840
aS'b0929'
p6841
asS'PTAr'
p6842
(lp6843
S'b2297'
p6844
aS'b2458'
p6845
asS'4HTHRS'
p6846
(lp6847
S'b0004'
p6848
asS'ETOHt2rpp'
p6849
(lp6850
g13
asS'PLIPA1E141pp'
p6851
(lp6852
S'b3821'
p6853
asS'ALPATE160pp'
p6854
(lp6855
(lp6856
S'b0657'
p6857
aS'b1677'
p6858
aasS'EX_glcn_LPAREN_e_RPAREN_'
p6859
(lp6860
g13
asS'FADRx2'
p6861
(lp6862
(lp6863
S'b2763'
p6864
aS'b2764'
p6865
aasS'EX_fe3dhbzs_LPAREN_e_RPAREN_'
p6866
(lp6867
g13
asS'APRAUR'
p6868
(lp6869
S'b0414'
p6870
asS'XYLUt2pp'
p6871
(lp6872
(lp6873
S'b3577'
p6874
aS'b3578'
p6875
aS'b3579'
p6876
aasS'HYD3pp'
p6877
(lp6878
(lp6879
S'b0972'
p6880
aS'b0973'
p6881
aS'b0974'
p6882
aa(lp6883
S'b2994'
p6884
aS'b2997'
p6885
aasS'GLBRAN2'
p6886
(lp6887
S'b3432'
p6888
asS'UDPGDC'
p6889
(lp6890
S'b2255'
p6891
asS'NTD10pp'
p6892
(lp6893
S'b4055'
p6894
aS'b0480'
p6895
asS'CITt7pp'
p6896
(lp6897
S'b0612'
p6898
asS'LPLIPAL1G120pp'
p6899
(lp6900
S'b0494'
p6901
asS'GMHEPK'
p6902
(lp6903
S'b3052'
p6904
asS'FE3DCITabcpp'
p6905
(lp6906
(lp6907
S'b4287'
p6908
aS'b4288'
p6909
aS'b4289'
p6910
aS'b4290'
p6911
aasS'TAURabcpp'
p6912
(lp6913
(lp6914
S'b0365'
p6915
aS'b0366'
p6916
aS'b0367'
p6917
aasS'EX_progly_LPAREN_e_RPAREN_'
p6918
(lp6919
g13
asS'ADNt2rpp'
p6920
(lp6921
S'b2406'
p6922
asS'EX_cyan_LPAREN_e_RPAREN_'
p6923
(lp6924
g13
asS'CYTDK2'
p6925
(lp6926
S'b2066'
p6927
asS'PLIPA2E181pp'
p6928
(lp6929
S'b3821'
p6930
asS'ACOAD5f'
p6931
(lp6932
S'b0221'
p6933
asS'EX_pppn_LPAREN_e_RPAREN_'
p6934
(lp6935
g13
asS'23CUMPtex'
p6936
(lp6937
S'b2215'
p6938
aS'b0241'
p6939
aS'b1377'
p6940
aS'b0929'
p6941
asS'MG2t3_2pp'
p6942
(lp6943
g13
asS'PMANM'
p6944
(lp6945
S'b2048'
p6946
asS'PIt2rpp'
p6947
(lp6948
S'b3493'
p6949
aS'b2987'
p6950
asS'ACMANAptspp'
p6951
(lp6952
(lp6953
S'b1817'
p6954
aS'b1818'
p6955
aS'b1819'
p6956
aS'b2415'
p6957
aS'b2416'
p6958
aasS'GSNK'
p6959
(lp6960
S'b0477'
p6961
asS'MDH'
p6962
(lp6963
S'b3236'
p6964
asS'EX_gly_LPAREN_e_RPAREN_'
p6965
(lp6966
g13
asS'SHK3Dr'
p6967
(lp6968
S'b1692'
p6969
aS'b3281'
p6970
asS'EX_o2s_LPAREN_e_RPAREN_'
p6971
(lp6972
g13
asS'TYRTA'
p6973
(lp6974
S'b4054'
p6975
aS'b0928'
p6976
asS'ASPK'
p6977
(lp6978
S'b0002'
p6979
aS'b4024'
p6980
aS'b3940'
p6981
asS'EX_5dglcn_LPAREN_e_RPAREN_'
p6982
(lp6983
g13
asS'LPLIPAL2ATE181'
p6984
(lp6985
S'b3825'
p6986
asS'EX_gbbtn_LPAREN_e_RPAREN_'
p6987
(lp6988
g13
asS'LPLIPAL2ATE180'
p6989
(lp6990
S'b3825'
p6991
asS'5DGLCNR'
p6992
(lp6993
S'b4266'
p6994
asS'EX_dcmp_LPAREN_e_RPAREN_'
p6995
(lp6996
g13
asS'CYSTRS'
p6997
(lp6998
S'b0526'
p6999
asS'EX_glcur_LPAREN_e_RPAREN_'
p7000
(lp7001
g13
asS'GTPCII2'
p7002
(lp7003
S'b1277'
p7004
asS'PLIPA1G141pp'
p7005
(lp7006
S'b3821'
p7007
asS'MG2tpp'
p7008
(lp7009
S'b3816'
p7010
asS'MAN6Pt6_2pp'
p7011
(lp7012
S'b3666'
p7013
asS'PLIPA1G181pp'
p7014
(lp7015
S'b3821'
p7016
asS'EX_for_LPAREN_e_RPAREN_'
p7017
(lp7018
g13
asS'METSOX1abcpp'
p7019
(lp7020
g13
asS'PDX5PS'
p7021
(lp7022
(lp7023
S'b0052'
p7024
aS'b2564'
p7025
aasS'UAPGR'
p7026
(lp7027
S'b3972'
p7028
asS'TMDPP'
p7029
(lp7030
S'b4382'
p7031
asS'PTA2'
p7032
(lp7033
S'b2297'
p7034
asS'MEPCT'
p7035
(lp7036
S'b2747'
p7037
asS'EX_ade_LPAREN_e_RPAREN_'
p7038
(lp7039
g13
asS'PROabcpp'
p7040
(lp7041
(lp7042
S'b2677'
p7043
aS'b2678'
p7044
aS'b2679'
p7045
aasS'MALTATr'
p7046
(lp7047
S'b0459'
p7048
asS'PETNT181pp'
p7049
(lp7050
S'b3546'
p7051
asS'EAR180x'
p7052
(lp7053
S'b1288'
p7054
asS'EAR180y'
p7055
(lp7056
S'b1288'
p7057
asS'CLPNH120pp'
p7058
(lp7059
g13
asS'FECRMexs'
p7060
(lp7061
S's0001'
p7062
asS'EX_h2s_LPAREN_e_RPAREN_'
p7063
(lp7064
g13
asS'FE3HOXtonex'
p7065
(lp7066
(lp7067
S'b0150'
p7068
aS'b1252'
p7069
aS'b3005'
p7070
aS'b3006'
p7071
aasS'FEOXAMR2'
p7072
(lp7073
g13
asS'FEOXAMR3'
p7074
(lp7075
g13
asS'EX_adocbl_LPAREN_e_RPAREN_'
p7076
(lp7077
g13
asS'FEOXAMR1'
p7078
(lp7079
g13
asS'ACt4pp'
p7080
(lp7081
S'b4067'
p7082
asS'EX_csn_LPAREN_e_RPAREN_'
p7083
(lp7084
g13
asS'EX_isetac_LPAREN_e_RPAREN_'
p7085
(lp7086
g13
asS'H2O2tex'
p7087
(lp7088
S'b1377'
p7089
aS'b2215'
p7090
aS'b0929'
p7091
aS'b0241'
p7092
asS'OROTtex'
p7093
(lp7094
S'b0929'
p7095
aS'b2215'
p7096
aS'b1377'
p7097
aS'b0241'
p7098
asS'MCTP1Bpp'
p7099
(lp7100
S'b0149'
p7101
aS'b3396'
p7102
asS'MLTGY4pp'
p7103
(lp7104
S'b2813'
p7105
aS'b1193'
p7106
aS'b4392'
p7107
aS'b2963'
p7108
aS'b2701'
p7109
asS'ADPRDP'
p7110
(lp7111
S'b3397'
p7112
asS'PPKr'
p7113
(lp7114
S'b2501'
p7115
asS'SUCOAS'
p7116
(lp7117
(lp7118
S'b0728'
p7119
aS'b0729'
p7120
aasS'TMAOR2'
p7121
(lp7122
(lp7123
S'b0894'
p7124
aS'b0895'
p7125
aS'b0896'
p7126
aasS'FE2tpp'
p7127
(lp7128
S'b3040'
p7129
asS'ENTCS'
p7130
(lp7131
S'b0583'
p7132
asS'EX_maltttr_LPAREN_e_RPAREN_'
p7133
(lp7134
g13
asS'EX_hom_L_LPAREN_e_RPAREN_'
p7135
(lp7136
g13
asS'EX_dump_LPAREN_e_RPAREN_'
p7137
(lp7138
g13
asS'ACACt2pp'
p7139
(lp7140
S'b2223'
p7141
asS'PLIPA1A180pp'
p7142
(lp7143
S'b3821'
p7144
asS'LPLIPAL1A140pp'
p7145
(lp7146
S'b0494'
p7147
asS'HCYSMT2'
p7148
(lp7149
S'b0261'
p7150
asS'PPAKr'
p7151
(lp7152
S'b3115'
p7153
asS'EX_o2_LPAREN_e_RPAREN_'
p7154
(lp7155
g13
asS'2DGLCNRy'
p7156
(lp7157
S'b3553'
p7158
asS'CTBTabcpp'
p7159
(lp7160
(lp7161
S'b2677'
p7162
aS'b2678'
p7163
aS'b2679'
p7164
aasS'DDCAtexi'
p7165
(lp7166
S'b2344'
p7167
asS'GF6PTA'
p7168
(lp7169
S'b3729'
p7170
asS'PRAMPC'
p7171
(lp7172
S'b2026'
p7173
asS'NTP3pp'
p7174
(lp7175
S'b0980'
p7176
asS'RHCCE'
p7177
(lp7178
S'b2687'
p7179
asS'ASO3t8pp'
p7180
(lp7181
S'b3502'
p7182
asS'CYSS'
p7183
(lp7184
S'b2414'
p7185
aS'b2421'
p7186
asS'2AGPGAT160'
p7187
(lp7188
S'b2836'
p7189
asS'TMDS'
p7190
(lp7191
S'b2827'
p7192
asS'FEOXAMexs'
p7193
(lp7194
S's0001'
p7195
asS'HEXt2rpp'
p7196
(lp7197
S'b2223'
p7198
asS'EX_acser_LPAREN_e_RPAREN_'
p7199
(lp7200
g13
asS'ANHMK'
p7201
(lp7202
S'b1640'
p7203
asS'CBMKr'
p7204
(lp7205
S'b0521'
p7206
aS'b2874'
p7207
aS'b0323'
p7208
asS'ACALDtpp'
p7209
(lp7210
S's0001'
p7211
asS'INSt2rpp'
p7212
(lp7213
S'b2406'
p7214
asS'DCAtex'
p7215
(lp7216
S'b2215'
p7217
aS'b0241'
p7218
aS'b1377'
p7219
aS'b0929'
p7220
asS'ASNt2rpp'
p7221
(lp7222
S'b1453'
p7223
asS'MECDPS'
p7224
(lp7225
S'b2746'
p7226
asS'NACtex'
p7227
(lp7228
S'b2215'
p7229
aS'b0241'
p7230
aS'b1377'
p7231
aS'b0929'
p7232
asS'ACALDtex'
p7233
(lp7234
S'b2215'
p7235
aS'b0241'
p7236
aS'b1377'
p7237
aS'b0929'
p7238
asS'IMPC'
p7239
(lp7240
S'b4006'
p7241
asS'3OAR161'
p7242
(lp7243
S'b1093'
p7244
asS'3OAR160'
p7245
(lp7246
S'b1093'
p7247
asS'IMPD'
p7248
(lp7249
S'b2508'
p7250
asS'HOPNTAL'
p7251
(lp7252
S'b0352'
p7253
asS'PSD161'
p7254
(lp7255
S'b4160'
p7256
asS'OMPHHX3'
p7257
(lp7258
g13
asS'ACOATA'
p7259
(lp7260
(lp7261
S'b1091'
p7262
aS'b1094'
p7263
aasS'IPDDI'
p7264
(lp7265
S'b2889'
p7266
asS'DURIPP'
p7267
(lp7268
S'b4382'
p7269
aS'b4384'
p7270
asS'G3PItex'
p7271
(lp7272
S'b2215'
p7273
aS'b0241'
p7274
aS'b1377'
p7275
aS'b0929'
p7276
asS'DALAt2pp'
p7277
(lp7278
S'b4208'
p7279
asS'EX_imp_LPAREN_e_RPAREN_'
p7280
(lp7281
g13
asS'DAPDC'
p7282
(lp7283
S'b2838'
p7284
asS'SERASr'
p7285
(lp7286
S'b0586'
p7287
asS'3OAS140'
p7288
(lp7289
S'b2323'
p7290
aS'b1095'
p7291
asS'3OAS141'
p7292
(lp7293
S'b2323'
p7294
asS'ISETACtex'
p7295
(lp7296
S'b2215'
p7297
aS'b0241'
p7298
aS'b1377'
p7299
aS'b0929'
p7300
asS'SPMS'
p7301
(lp7302
S'b0121'
p7303
asS'ASPCT'
p7304
(lp7305
(lp7306
S'b4244'
p7307
aS'b4245'
p7308
aasS'ATPS4rpp'
p7309
(lp7310
(lp7311
S'b3731'
p7312
aS'b3732'
p7313
aS'b3733'
p7314
aS'b3734'
p7315
aS'b3735'
p7316
aS'b3736'
p7317
aS'b3737'
p7318
aS'b3738'
p7319
aS'b3739'
p7320
aa(lp7321
S'b3731'
p7322
aS'b3732'
p7323
aS'b3733'
p7324
aS'b3734'
p7325
aS'b3735'
p7326
aS'b3736'
p7327
aS'b3737'
p7328
aS'b3738'
p7329
aasS'PPPNt2rpp'
p7330
(lp7331
S'b2536'
p7332
asS'XAND'
p7333
(lp7334
(lp7335
S'b2866'
p7336
aS'b2867'
p7337
aS'b2868'
p7338
aasS'ACGAM1Ptex'
p7339
(lp7340
S'b2215'
p7341
aS'b0241'
p7342
aS'b1377'
p7343
aS'b0929'
p7344
asS'NTP3'
p7345
(lp7346
S'b4161'
p7347
asS'NTP1'
p7348
(lp7349
S'b0650'
p7350
aS'b4161'
p7351
asS'EX_urea_LPAREN_e_RPAREN_'
p7352
(lp7353
g13
asS'DAGK181'
p7354
(lp7355
S'b4042'
p7356
asS'DAGK180'
p7357
(lp7358
S'b4042'
p7359
asS'PA120abcpp'
p7360
(lp7361
S'b0914'
p7362
asS'EX_sbt_D_LPAREN_e_RPAREN_'
p7363
(lp7364
g13
asS'INSTtex'
p7365
(lp7366
S'b2215'
p7367
aS'b0241'
p7368
aS'b1377'
p7369
aS'b0929'
p7370
asS'FUM'
p7371
(lp7372
S'b1612'
p7373
aS'b1611'
p7374
aS'b4122'
p7375
asS'DAPE'
p7376
(lp7377
S'b3809'
p7378
asS'TDPAGTA'
p7379
(lp7380
S'b3791'
p7381
asS'HG2abcpp'
p7382
(lp7383
S'b3469'
p7384
asS'ALDD19x'
p7385
(lp7386
S'b1385'
p7387
asS'3HAD160'
p7388
(lp7389
S'b0954'
p7390
aS'b0180'
p7391
asS'GMHEPAT'
p7392
(lp7393
S'b3052'
p7394
asS'EX_mnl_LPAREN_e_RPAREN_'
p7395
(lp7396
g13
asS'FRULYSDG'
p7397
(lp7398
S'b3371'
p7399
asS'LYStex'
p7400
(lp7401
S'b2215'
p7402
aS'b0241'
p7403
aS'b1377'
p7404
aS'b0929'
p7405
asS'GPDDA1pp'
p7406
(lp7407
S'b2239'
p7408
asS'AGM4PApp'
p7409
(lp7410
S'b2435'
p7411
aS'b4169'
p7412
aS'b2817'
p7413
asS'EX_uri_LPAREN_e_RPAREN_'
p7414
(lp7415
g13
asS'EX_dcyt_LPAREN_e_RPAREN_'
p7416
(lp7417
g13
asS'IPPMIb'
p7418
(lp7419
(lp7420
S'b0071'
p7421
aS'b0072'
p7422
aasS'PLIPA1A181pp'
p7423
(lp7424
S'b3821'
p7425
asS'LPLIPAL1A141pp'
p7426
(lp7427
S'b0494'
p7428
asS'MDRPD'
p7429
(lp7430
g13
asS'TMPK'
p7431
(lp7432
S'b0417'
p7433
asS'SGDS'
p7434
(lp7435
S'b1744'
p7436
asS'3HAD180'
p7437
(lp7438
S'b0954'
p7439
aS'b0180'
p7440
asS'3HAD181'
p7441
(lp7442
S'b0954'
p7443
aS'b0180'
p7444
asS'ASNNpp'
p7445
(lp7446
S'b2957'
p7447
asS'EX_pyr_LPAREN_e_RPAREN_'
p7448
(lp7449
g13
asS'FRD2'
p7450
(lp7451
(lp7452
S'b4151'
p7453
aS'b4152'
p7454
aS'b4153'
p7455
aS'b4154'
p7456
aasS'FRD3'
p7457
(lp7458
(lp7459
S'b4151'
p7460
aS'b4152'
p7461
aS'b4153'
p7462
aS'b4154'
p7463
aasS'PACALDt2rpp'
p7464
(lp7465
g13
asS'EX_h2o2_LPAREN_e_RPAREN_'
p7466
(lp7467
g13
asS'UDPGLCURtex'
p7468
(lp7469
S'b2215'
p7470
aS'b0241'
p7471
aS'b1377'
p7472
aS'b0929'
p7473
asS'EX_LalaDgluMdapDala_LPAREN_e_RPAREN_'
p7474
(lp7475
g13
asS'SUCBZS'
p7476
(lp7477
S'b2261'
p7478
asS'ORPT'
p7479
(lp7480
S'b3642'
p7481
asS'ALAGLUE'
p7482
(lp7483
S'b1325'
p7484
asS'HISt2rpp'
p7485
(lp7486
S'b0112'
p7487
asS'TDPADGAT'
p7488
(lp7489
S'b3790'
p7490
asS'FE3DHBZSabcpp'
p7491
(lp7492
(lp7493
S'b0588'
p7494
aS'b0589'
p7495
aS'b0590'
p7496
aS'b0592'
p7497
aasS'SUCBZL'
p7498
(lp7499
S'b2260'
p7500
asS'PGSA120'
p7501
(lp7502
S'b1912'
p7503
asS'MMM2'
p7504
(lp7505
S'b2917'
p7506
asS'ASR'
p7507
(lp7508
(lp7509
S'b1064'
p7510
aS'b3503'
p7511
aasS'RNDR4b'
p7512
(lp7513
(lp7514
S'b1654'
p7515
aS'b2675'
p7516
aS'b2676'
p7517
aa(lp7518
S'b0849'
p7519
aS'b2675'
p7520
aS'b2676'
p7521
aa(lp7522
S'b2675'
p7523
aS'b2676'
p7524
aS'b3610'
p7525
aa(lp7526
S'b1064'
p7527
aS'b2675'
p7528
aS'b2676'
p7529
aasS'AST'
p7530
(lp7531
S'b1747'
p7532
asS'5DGLCNt2rpp'
p7533
(lp7534
S'b4265'
p7535
asS'PLIPA2A141pp'
p7536
(lp7537
S'b3821'
p7538
asS'ALCD19'
p7539
(lp7540
S'b0356'
p7541
asS'ALLabcpp'
p7542
(lp7543
(lp7544
S'b4086'
p7545
aS'b4087'
p7546
aS'b4088'
p7547
aasS'EAR80y'
p7548
(lp7549
S'b1288'
p7550
asS'FRULYSK'
p7551
(lp7552
S'b3374'
p7553
asS'EX_glyc3p_LPAREN_e_RPAREN_'
p7554
(lp7555
g13
asS'FRULYSE'
p7556
(lp7557
S'b4474'
p7558
asS'ACOLIPAtex'
p7559
(lp7560
g13
asS'TDPDRE'
p7561
(lp7562
S'b2038'
p7563
asS'TRPAS2'
p7564
(lp7565
S'b3708'
p7566
asS'LIPAabcpp'
p7567
(lp7568
S'b0914'
p7569
asS'GALCTNtex'
p7570
(lp7571
S'b2215'
p7572
aS'b0241'
p7573
aS'b1377'
p7574
aS'b0929'
p7575
asS'EX_ppal_LPAREN_e_RPAREN_'
p7576
(lp7577
g13
asS'IGPDH'
p7578
(lp7579
S'b2022'
p7580
asS'TDPDRR'
p7581
(lp7582
S'b2040'
p7583
asS'PRATPP'
p7584
(lp7585
S'b2026'
p7586
asS'HYPOE'
p7587
(lp7588
g13
asS'PSSA120'
p7589
(lp7590
S'b2585'
p7591
asS'GALM2pp'
p7592
(lp7593
S'b0756'
p7594
asS'EX_chol_LPAREN_e_RPAREN_'
p7595
(lp7596
g13
asS'PGAMT'
p7597
(lp7598
S'b3176'
p7599
asS'EX_galt_LPAREN_e_RPAREN_'
p7600
(lp7601
g13
asS'HACD1i'
p7602
(lp7603
S'b2341'
p7604
aS'b3846'
p7605
asS'AGM4PCP'
p7606
(lp7607
S'b1192'
p7608
asS'ACGAMT'
p7609
(lp7610
S'b3784'
p7611
asS'EX_no2_LPAREN_e_RPAREN_'
p7612
(lp7613
g13
asS'PLIPA1E140pp'
p7614
(lp7615
S'b3821'
p7616
asS'PLIPA2G120pp'
p7617
(lp7618
S'b3821'
p7619
asS'GAMtex'
p7620
(lp7621
S'b2215'
p7622
aS'b0241'
p7623
aS'b1377'
p7624
aS'b0929'
p7625
asS'EX_colipa_LPAREN_e_RPAREN_'
p7626
(lp7627
g13
asS'NADPHQR2'
p7628
(lp7629
S'b3028'
p7630
asS'FACOAE181'
p7631
(lp7632
S'b0452'
p7633
asS'EX_gln_L_LPAREN_e_RPAREN_'
p7634
(lp7635
g13
asS'FA161ACPHi'
p7636
(lp7637
S'b0404'
p7638
asS'PGP120abcpp'
p7639
(lp7640
S'b0914'
p7641
asS'ACMAMUT'
p7642
(lp7643
S'b3794'
p7644
asS'CYTD'
p7645
(lp7646
S'b2143'
p7647
asS'EX_cu2_LPAREN_e_RPAREN_'
p7648
(lp7649
g13
asS'NDPK8'
p7650
(lp7651
S'b2518'
p7652
aS'b0474'
p7653
asS'DSERDHr'
p7654
(lp7655
S'b1539'
p7656
asS'PPND'
p7657
(lp7658
S'b2600'
p7659
asS'NDPK3'
p7660
(lp7661
S'b0474'
p7662
aS'b2518'
p7663
asS'NDPK1'
p7664
(lp7665
S'b2518'
p7666
aS'b0474'
p7667
asS'TRDR'
p7668
(lp7669
(lp7670
S'b0888'
p7671
aS'b3781'
p7672
aa(lp7673
S'b0888'
p7674
aS'b2582'
p7675
aasS'NDPK7'
p7676
(lp7677
S'b2518'
p7678
aS'b0474'
p7679
asS'NDPK4'
p7680
(lp7681
S'b2518'
p7682
aS'b0474'
p7683
asS'NDPK5'
p7684
(lp7685
S'b2518'
p7686
aS'b0474'
p7687
asS'GLYC3Ptex'
p7688
(lp7689
S'b2215'
p7690
aS'b0241'
p7691
aS'b1377'
p7692
aS'b0929'
p7693
asS'GLUABUTt7pp'
p7694
(lp7695
S'b1492'
p7696
asS'CA2t3pp'
p7697
(lp7698
S'b1216'
p7699
asS'MGSA'
p7700
(lp7701
S'b0963'
p7702
asS'GLCtex'
p7703
(lp7704
S'b2215'
p7705
aS'b0241'
p7706
aS'b1377'
p7707
aS'b0929'
p7708
asS'NI2tex'
p7709
(lp7710
S'b1377'
p7711
aS'b2215'
p7712
aS'b0929'
p7713
aS'b0241'
p7714
asS'URAt2pp'
p7715
(lp7716
S'b2497'
p7717
asS'ASPabcpp'
p7718
(lp7719
(lp7720
S'b0652'
p7721
aS'b0653'
p7722
aS'b0654'
p7723
aS'b0655'
p7724
aasS'ALLTAMH'
p7725
(lp7726
S'b0516'
p7727
asS'MAN1PT2'
p7728
(lp7729
S'b2049'
p7730
asS'SHCHD2'
p7731
(lp7732
S'b3368'
p7733
asS'2AGPGAT161'
p7734
(lp7735
S'b2836'
p7736
asS'2AGPEAT141'
p7737
(lp7738
S'b2836'
p7739
asS'2AGPEAT140'
p7740
(lp7741
S'b2836'
p7742
asS'ARBTNR2'
p7743
(lp7744
g13
asS'DIMPtex'
p7745
(lp7746
S'b0241'
p7747
aS'b0929'
p7748
aS'b2215'
p7749
aS'b1377'
p7750
asS'THRPtex'
p7751
(lp7752
S'b2215'
p7753
aS'b0241'
p7754
aS'b1377'
p7755
aS'b0929'
p7756
asS'ARBTNR1'
p7757
(lp7758
g13
asS'GHMT2r'
p7759
(lp7760
S'b2551'
p7761
asS'MLDCP1Bpp'
p7762
(lp7763
g13
asS'MOAT2'
p7764
(lp7765
S'b3633'
p7766
asS'ALR4x'
p7767
(lp7768
S'b3945'
p7769
asS'N2Otpp'
p7770
(lp7771
S's0001'
p7772
asS'EX_cmp_LPAREN_e_RPAREN_'
p7773
(lp7774
g13
asS'MANtex'
p7775
(lp7776
S'b2215'
p7777
aS'b0241'
p7778
aS'b1377'
p7779
aS'b0929'
p7780
asS'ARGabcpp'
p7781
(lp7782
(lp7783
S'b0860'
p7784
aS'b0861'
p7785
aS'b0862'
p7786
aS'b0863'
p7787
aS'b0864'
p7788
aa(lp7789
S'b2306'
p7790
aS'b2307'
p7791
aS'b2308'
p7792
aS'b2310'
p7793
aasS'IPMD'
p7794
(lp7795
S'b0073'
p7796
asS'LACZ'
p7797
(lp7798
S'b0344'
p7799
asS'LPLIPAL2ATE120'
p7800
(lp7801
S'b3825'
p7802
asS'IPDPS'
p7803
(lp7804
S'b0029'
p7805
asS'SULRi'
p7806
(lp7807
(lp7808
S'b2763'
p7809
aS'b2764'
p7810
aasS'EX_psclys_LPAREN_e_RPAREN_'
p7811
(lp7812
g13
asS'PLIPA1E181pp'
p7813
(lp7814
S'b3821'
p7815
asS'THMabcpp'
p7816
(lp7817
(lp7818
S'b0066'
p7819
aS'b0067'
p7820
aS'b0068'
p7821
aasS'GAPD'
p7822
(lp7823
S'b1779'
p7824
asS'DSBCGT'
p7825
(lp7826
S'b2893'
p7827
asS'LPLIPAL2G160'
p7828
(lp7829
S'b3825'
p7830
asS'LPLIPAL2G161'
p7831
(lp7832
S'b3825'
p7833
asS'INOSTt4pp'
p7834
(lp7835
S'b3679'
p7836
asS'GMPtex'
p7837
(lp7838
S'b2215'
p7839
aS'b0241'
p7840
aS'b1377'
p7841
aS'b0929'
p7842
asS'EAR40x'
p7843
(lp7844
S'b1288'
p7845
asS'EAR40y'
p7846
(lp7847
S'b1288'
p7848
asS'EX_dtmp_LPAREN_e_RPAREN_'
p7849
(lp7850
g13
asS'CU2tex'
p7851
(lp7852
S'b1377'
p7853
aS'b0241'
p7854
aS'b2215'
p7855
aS'b0929'
p7856
asS'GMPR'
p7857
(lp7858
S'b0104'
p7859
asS'XANt2pp'
p7860
(lp7861
S'b3654'
p7862
asS'3NTD2pp'
p7863
(lp7864
S'b4213'
p7865
asS'PA140abcpp'
p7866
(lp7867
S'b0914'
p7868
asS'DHPTPE'
p7869
(lp7870
S'b2303'
p7871
asS'THRD_L'
p7872
(lp7873
S'b2797'
p7874
aS'b3772'
p7875
aS'b1814'
p7876
aS'b3117'
p7877
asS'GLYOX'
p7878
(lp7879
S'b0212'
p7880
asS'AACTOOR'
p7881
(lp7882
g13
asS'SO2tpp'
p7883
(lp7884
S's0001'
p7885
asS'THRtex'
p7886
(lp7887
S'b2215'
p7888
aS'b0241'
p7889
aS'b1377'
p7890
aS'b0929'
p7891
asS'NACtpp'
p7892
(lp7893
g13
asS'EX_23camp_LPAREN_e_RPAREN_'
p7894
(lp7895
g13
asS'N2Otex'
p7896
(lp7897
S'b2215'
p7898
aS'b0241'
p7899
aS'b1377'
p7900
aS'b0929'
p7901
asS'EX_adn_LPAREN_e_RPAREN_'
p7902
(lp7903
g13
asS'URIK2'
p7904
(lp7905
S'b2066'
p7906
asS'AKGt2rpp'
p7907
(lp7908
S'b2587'
p7909
asS'UGLYCH'
p7910
(lp7911
S'b0505'
p7912
asS'EX_met_L_LPAREN_e_RPAREN_'
p7913
(lp7914
g13
asS'ARAI'
p7915
(lp7916
S'b0062'
p7917
asS'GALKr'
p7918
(lp7919
S'b0757'
p7920
aS'b2045'
p7921
asS'XYLK'
p7922
(lp7923
S'b3564'
p7924
aS'b0063'
p7925
asS'NTD11pp'
p7926
(lp7927
S'b0480'
p7928
aS'b4055'
p7929
asS'ARBt3ipp'
p7930
(lp7931
S'b1528'
p7932
asS'XYLUtex'
p7933
(lp7934
S'b2215'
p7935
aS'b0241'
p7936
aS'b1377'
p7937
aS'b0929'
p7938
asS'HETZK'
p7939
(lp7940
S'b2104'
p7941
asS'NTD8pp'
p7942
(lp7943
S'b4055'
p7944
aS'b0480'
p7945
asS'PTRCTA'
p7946
(lp7947
S'b3073'
p7948
asS'EX_glc_LPAREN_e_RPAREN_'
p7949
(lp7950
g13
asS'DTMPtex'
p7951
(lp7952
S'b2215'
p7953
aS'b0241'
p7954
aS'b1377'
p7955
aS'b0929'
p7956
asS'ECOAH8'
p7957
(lp7958
S'b3846'
p7959
aS'b2341'
p7960
asS'ECOAH6'
p7961
(lp7962
S'b2341'
p7963
aS'b3846'
p7964
asS'ECOAH7'
p7965
(lp7966
S'b2341'
p7967
aS'b3846'
p7968
asS'ECOAH4'
p7969
(lp7970
S'b2341'
p7971
aS'b3846'
p7972
asS'ECOAH5'
p7973
(lp7974
S'b2341'
p7975
aS'b3846'
p7976
asS'ECOAH2'
p7977
(lp7978
S'b2341'
p7979
aS'b3846'
p7980
asS'ECOAH3'
p7981
(lp7982
S'b2341'
p7983
aS'b3846'
p7984
asS'ECOAH1'
p7985
(lp7986
S'b2341'
p7987
aS'b3846'
p7988
asS'OP4ENH'
p7989
(lp7990
S'b0350'
p7991
asS'FA80ACPHi'
p7992
(lp7993
S'b0404'
p7994
asS'ALDD2x'
p7995
(lp7996
S'b1300'
p7997
asS'G3PAT120'
p7998
(lp7999
S'b4041'
p8000
asS'SO2tex'
p8001
(lp8002
S'b2215'
p8003
aS'b0241'
p8004
aS'b1377'
p8005
aS'b0929'
p8006
asS'UGLCURPpp'
p8007
(lp8008
S'b0480'
p8009
asS'NMNtex'
p8010
(lp8011
S'b2215'
p8012
aS'b0241'
p8013
aS'b1377'
p8014
aS'b0929'
p8015
asS'ADOCBLtonex'
p8016
(lp8017
(lp8018
S'b1252'
p8019
aS'b3005'
p8020
aS'b3006'
p8021
aS'b3966'
p8022
aasS'EX_cys_D_LPAREN_e_RPAREN_'
p8023
(lp8024
g13
asS'EX_glyc_R_LPAREN_e_RPAREN_'
p8025
(lp8026
g13
asS'A5PISO'
p8027
(lp8028
S'b3197'
p8029
aS'b2708'
p8030
asS'ARGSL'
p8031
(lp8032
S'b3960'
p8033
asS'EX_pnto_R_LPAREN_e_RPAREN_'
p8034
(lp8035
g13
asS'LYSt2pp'
p8036
(lp8037
S'b2156'
p8038
asS'OBTFL'
p8039
(lp8040
(lp8041
S'b0902'
p8042
aS'b0903'
p8043
aS'b2579'
p8044
aa(lp8045
S'b0902'
p8046
aS'b3114'
p8047
aa(lp8048
S'b0902'
p8049
aS'b0903'
p8050
aasS'EX_fum_LPAREN_e_RPAREN_'
p8051
(lp8052
g13
asS'UAMAS'
p8053
(lp8054
S'b0091'
p8055
asS'ARGSS'
p8056
(lp8057
S'b3172'
p8058
asS'NO3R1pp'
p8059
(lp8060
(lp8061
S'b1224'
p8062
aS'b1225'
p8063
aS'b1226'
p8064
aS'b1227'
p8065
aa(lp8066
S'b1465'
p8067
aS'b1466'
p8068
aS'b1467'
p8069
aS'b1468'
p8070
aasS'CRNDt2rpp'
p8071
(lp8072
S'b4111'
p8073
asS'CLPNS160pp'
p8074
(lp8075
S'b0789'
p8076
aS'b1249'
p8077
asS'PGP180abcpp'
p8078
(lp8079
S'b0914'
p8080
asS'UGMDDS'
p8081
(lp8082
S'b0086'
p8083
asS'4PEPTtex'
p8084
(lp8085
S'b2215'
p8086
aS'b0241'
p8087
aS'b1377'
p8088
aS'b0929'
p8089
asS'GTPHs'
p8090
(lp8091
S's0001'
p8092
asS'EX_h2_LPAREN_e_RPAREN_'
p8093
(lp8094
g13
asS'ASNN'
p8095
(lp8096
S'b1767'
p8097
aS'b0828'
p8098
asS'PLIPA1A140pp'
p8099
(lp8100
S'b3821'
p8101
asS'PHEMEabcpp'
p8102
(lp8103
(lp8104
S'b2199'
p8105
aS'b2200'
p8106
aS'b2201'
p8107
aasS'MLTGY1pp'
p8108
(lp8109
S'b2701'
p8110
aS'b2963'
p8111
aS'b2813'
p8112
aS'b4392'
p8113
aS'b1193'
p8114
asS'3HAD141'
p8115
(lp8116
S'b0954'
p8117
aS'b0180'
p8118
asS'MLTGY2pp'
p8119
(lp8120
S'b2701'
p8121
aS'b2963'
p8122
aS'b2813'
p8123
aS'b4392'
p8124
aS'b1193'
p8125
asS'EX_lcts_LPAREN_e_RPAREN_'
p8126
(lp8127
g13
asS'PDX5PO2'
p8128
(lp8129
g13
asS'FE3DCITtonex'
p8130
(lp8131
(lp8132
S'b1252'
p8133
aS'b3005'
p8134
aS'b3006'
p8135
aS'b4291'
p8136
aasS'EX_feenter_LPAREN_e_RPAREN_'
p8137
(lp8138
g13
asS'ACKr'
p8139
(lp8140
S'b2296'
p8141
aS'b3115'
p8142
aS'b1849'
p8143
asS'RIBtex'
p8144
(lp8145
S'b2215'
p8146
aS'b0241'
p8147
aS'b1377'
p8148
aS'b0929'
p8149
asS'DHORTS'
p8150
(lp8151
S'b1062'
p8152
asS'EX_orn_LPAREN_e_RPAREN_'
p8153
(lp8154
g13
asS'EX_amp_LPAREN_e_RPAREN_'
p8155
(lp8156
g13
asS'DGSNt2pp'
p8157
(lp8158
S'b2964'
p8159
asS'PPC'
p8160
(lp8161
S'b3956'
p8162
asS'PPA'
p8163
(lp8164
S'b2744'
p8165
aS'b4226'
p8166
aS'b2502'
p8167
asS'FDH5pp'
p8168
(lp8169
(lp8170
S'b1474'
p8171
aS'b1475'
p8172
aS'b1476'
p8173
aa(lp8174
S'b3892'
p8175
aS'b3893'
p8176
aS'b3894'
p8177
aasS'HPYRRy'
p8178
(lp8179
S'b3553'
p8180
aS'b1033'
p8181
asS'12DGR180tipp'
p8182
(lp8183
g13
asS'URIt2rpp'
p8184
(lp8185
S'b2406'
p8186
asS'PPM'
p8187
(lp8188
S'b3380'
p8189
aS'b4383'
p8190
asS'PPS'
p8191
(lp8192
S'b1702'
p8193
asS'EX_dgsn_LPAREN_e_RPAREN_'
p8194
(lp8195
g13
asS'PGPP181pp'
p8196
(lp8197
S'b1278'
p8198
aS'b0418'
p8199
asS'GPDDA4'
p8200
(lp8201
S'b3449'
p8202
asS'GPDDA5'
p8203
(lp8204
S'b3449'
p8205
asS'PRAGSr'
p8206
(lp8207
S'b4005'
p8208
asS'EX_udpg_LPAREN_e_RPAREN_'
p8209
(lp8210
g13
asS'GPDDA2'
p8211
(lp8212
S'b3449'
p8213
asS'GPDDA3'
p8214
(lp8215
S'b3449'
p8216
asS'GLYCAt2rpp'
p8217
(lp8218
S'b3127'
p8219
aS'b2789'
p8220
asS'SKMt2pp'
p8221
(lp8222
S'b1981'
p8223
asS'OCDCAtexi'
p8224
(lp8225
S'b2344'
p8226
asS'XANtpp'
p8227
(lp8228
g13
asS'ANS'
p8229
(lp8230
(lp8231
S'b1263'
p8232
aS'b1264'
p8233
aasS'EX_cys_L_LPAREN_e_RPAREN_'
p8234
(lp8235
g13
asS'TPI'
p8236
(lp8237
S'b3919'
p8238
asS'PLIPA2G161pp'
p8239
(lp8240
S'b3821'
p8241
asS'ZN2t3pp'
p8242
(lp8243
S'b0752'
p8244
aS'b3915'
p8245
asS'EX_mal_D_LPAREN_e_RPAREN_'
p8246
(lp8247
g13
asS'SDPTA'
p8248
(lp8249
S'b3359'
p8250
asS'HKNDDH'
p8251
(lp8252
S'b0349'
p8253
asS'CPGNR2'
p8254
(lp8255
g13
asS'CPGNR3'
p8256
(lp8257
g13
asS'CRNCBCT'
p8258
(lp8259
S'b0038'
p8260
asS'CPGNR1'
p8261
(lp8262
g13
asS'BPNT'
p8263
(lp8264
g13
asS'NI2abcpp'
p8265
(lp8266
S'b3469'
p8267
asS'ETHSO3tex'
p8268
(lp8269
S'b2215'
p8270
aS'b0241'
p8271
aS'b1377'
p8272
aS'b0929'
p8273
asS'FMNRx'
p8274
(lp8275
S'b3844'
p8276
aS'b0937'
p8277
asS'NADK'
p8278
(lp8279
S'b2615'
p8280
asS'CBLAT'
p8281
(lp8282
S'b1270'
p8283
asS'L_LACD3'
p8284
(lp8285
S'b3605'
p8286
asS'PROTRS'
p8287
(lp8288
S'b0194'
p8289
asS'GLYTRS'
p8290
(lp8291
(lp8292
S'b3559'
p8293
aS'b3560'
p8294
aasS'EX_xmp_LPAREN_e_RPAREN_'
p8295
(lp8296
g13
asS'CA2tex'
p8297
(lp8298
S'b2215'
p8299
aS'b0241'
p8300
aS'b1377'
p8301
aS'b0929'
p8302
asS'LPLIPAL1A181pp'
p8303
(lp8304
S'b0494'
p8305
asS'PGP161abcpp'
p8306
(lp8307
S'b0914'
p8308
asS'3OAR40'
p8309
(lp8310
S'b1093'
p8311
asS'NADN'
p8312
(lp8313
g13
asS'EX_dmso_LPAREN_e_RPAREN_'
p8314
(lp8315
g13
asS'DURItex'
p8316
(lp8317
S'b0411'
p8318
asS'LPADSS'
p8319
(lp8320
S'b0182'
p8321
asS'EX_fuc_L_LPAREN_e_RPAREN_'
p8322
(lp8323
g13
asS'BUTSO3tex'
p8324
(lp8325
S'b2215'
p8326
aS'b0241'
p8327
aS'b1377'
p8328
aS'b0929'
p8329
asS'MDDEP1pp'
p8330
(lp8331
S'b3182'
p8332
aS'b2134'
p8333
aS'b2328'
p8334
asS'ILEabcpp'
p8335
(lp8336
(lp8337
S'b3454'
p8338
aS'b3455'
p8339
aS'b3456'
p8340
aS'b3457'
p8341
aS'b3460'
p8342
aasS'CLPNS161pp'
p8343
(lp8344
S'b1249'
p8345
aS'b0789'
p8346
asS'TUNGSabcpp'
p8347
(lp8348
(lp8349
S'b0763'
p8350
aS'b0764'
p8351
aS'b0765'
p8352
aasS'3UMPtex'
p8353
(lp8354
S'b2215'
p8355
aS'b0241'
p8356
aS'b1377'
p8357
aS'b0929'
p8358
asS'METabcpp'
p8359
(lp8360
(lp8361
S'b0197'
p8362
aS'b0198'
p8363
aS'b0199'
p8364
aasS'HACD2i'
p8365
(lp8366
S'b2341'
p8367
aS'b3846'
p8368
asS'NADS1'
p8369
(lp8370
S'b1740'
p8371
asS'TREH'
p8372
(lp8373
S'b3519'
p8374
asS'PLIPA2E161pp'
p8375
(lp8376
S'b3821'
p8377
asS'LPLIPAL2E140'
p8378
(lp8379
S'b3825'
p8380
asS'LPLIPAL2E141'
p8381
(lp8382
S'b3825'
p8383
asS'MSO3abcpp'
p8384
(lp8385
(lp8386
S'b0933'
p8387
aS'b0934'
p8388
aS'b0936'
p8389
aasS'EX_pheme_LPAREN_e_RPAREN_'
p8390
(lp8391
g13
asS'NAt3pp'
p8392
(lp8393
S'b0842'
p8394
aS'b1216'
p8395
asS'2AGPGAT181'
p8396
(lp8397
S'b2836'
p8398
asS'SERt4pp'
p8399
(lp8400
S'b3089'
p8401
asS'CUtex'
p8402
(lp8403
S'b2215'
p8404
aS'b0241'
p8405
aS'b1377'
p8406
aS'b0929'
p8407
asS'LGTHL'
p8408
(lp8409
S'b1651'
p8410
asS'PLIPA1A141pp'
p8411
(lp8412
S'b3821'
p8413
asS'EX_ser_L_LPAREN_e_RPAREN_'
p8414
(lp8415
g13
asS'UDPGALPpp'
p8416
(lp8417
S'b0480'
p8418
asS'INDOLEt2rpp'
p8419
(lp8420
S'b3161'
p8421
asS'LEUTRS'
p8422
(lp8423
S'b0642'
p8424
asS'LCTStex'
p8425
(lp8426
S'b2215'
p8427
aS'b0241'
p8428
aS'b1377'
p8429
aS'b0929'
p8430
asS'GLUR'
p8431
(lp8432
S'b3967'
p8433
asS'4HOXPACDtex'
p8434
(lp8435
S'b2215'
p8436
aS'b0241'
p8437
aS'b1377'
p8438
aS'b0929'
p8439
asS'XPPT'
p8440
(lp8441
S'b0238'
p8442
asS'NH4tex'
p8443
(lp8444
S'b2215'
p8445
aS'b0241'
p8446
aS'b1377'
p8447
aS'b0929'
p8448
asS'UACGAMtex'
p8449
(lp8450
S'b2215'
p8451
aS'b0241'
p8452
aS'b1377'
p8453
aS'b0929'
p8454
asS'AGt3'
p8455
(lp8456
(lp8457
S'b0572'
p8458
aS'b0573'
p8459
aS'b0574'
p8460
aS'b0575'
p8461
aasS'AGMHE'
p8462
(lp8463
S'b3619'
p8464
asS'MALTptspp'
p8465
(lp8466
(lp8467
S'b1621'
p8468
aS'b2415'
p8469
aS'b2416'
p8470
aS'b2417'
p8471
aasS'EX_octa_LPAREN_e_RPAREN_'
p8472
(lp8473
g13
asS'CYSabcpp'
p8474
(lp8475
g13
asS'3OAR181'
p8476
(lp8477
S'b1093'
p8478
asS'AP4AH'
p8479
(lp8480
S'b0049'
p8481
asS'GLYCLTt2rpp'
p8482
(lp8483
S'b3603'
p8484
aS'b2975'
p8485
asS'PIuabcpp'
p8486
(lp8487
(lp8488
S'b3725'
p8489
aS'b3726'
p8490
aS'b3727'
p8491
aS'b3728'
p8492
aasS'NO3R1bpp'
p8493
(lp8494
(lp8495
S'b2202'
p8496
aS'b2203'
p8497
aS'b2204'
p8498
aS'b2205'
p8499
aS'b2206'
p8500
aasS'ETHAt2pp'
p8501
(lp8502
g13
asS'SHKK'
p8503
(lp8504
S'b3390'
p8505
aS'b0388'
p8506
asS'URDGLYCD'
p8507
(lp8508
S'b0517'
p8509
asS'PAPA140pp'
p8510
(lp8511
S'b1278'
p8512
asS'EX_12ppd_S_LPAREN_e_RPAREN_'
p8513
(lp8514
g13
asS'UREAtpp'
p8515
(lp8516
S'b3927'
p8517
asS'3OAS160'
p8518
(lp8519
S'b2323'
p8520
aS'b1095'
p8521
asS'3OAS161'
p8522
(lp8523
S'b2323'
p8524
asS'LALGP'
p8525
(lp8526
S'b0237'
p8527
asS'PLIPA2G160pp'
p8528
(lp8529
S'b3821'
p8530
asS'NMNPtpp'
p8531
(lp8532
S'b0751'
p8533
asS'Ktex'
p8534
(lp8535
S'b2215'
p8536
aS'b0241'
p8537
aS'b1377'
p8538
aS'b0929'
p8539
asS'DHAPT'
p8540
(lp8541
(lp8542
S'b1198'
p8543
aS'b1199'
p8544
aS'b1200'
p8545
aS'b2415'
p8546
aS'b2416'
p8547
aasS'ABUTt2pp'
p8548
(lp8549
S'b2663'
p8550
asS'FEENTERexs'
p8551
(lp8552
S's0001'
p8553
asS'FE3abcpp'
p8554
(lp8555
g13
asS'G6PP'
p8556
(lp8557
S'b0822'
p8558
asS'AGPR'
p8559
(lp8560
S'b3958'
p8561
asS'BUTt2rpp'
p8562
(lp8563
S'b2223'
p8564
asS'PSD160'
p8565
(lp8566
S'b4160'
p8567
asS'CYSDtex'
p8568
(lp8569
S'b2215'
p8570
aS'b0241'
p8571
aS'b1377'
p8572
aS'b0929'
p8573
asS'ALAR'
p8574
(lp8575
S'b4053'
p8576
aS'b1190'
p8577
asS'EX_man6p_LPAREN_e_RPAREN_'
p8578
(lp8579
g13
asS'CRNt2rpp'
p8580
(lp8581
S'b4111'
p8582
asS'MALDtex'
p8583
(lp8584
S'b1377'
p8585
aS'b2215'
p8586
aS'b0929'
p8587
aS'b0241'
p8588
asS'GLUDC'
p8589
(lp8590
S'b3517'
p8591
aS'b1493'
p8592
asS'CYANST'
p8593
(lp8594
S'b3425'
p8595
asS'F6PP'
p8596
(lp8597
S'b0822'
p8598
asS'EX_val_L_LPAREN_e_RPAREN_'
p8599
(lp8600
g13
asS'GLUDy'
p8601
(lp8602
S'b1761'
p8603
asS'PGP181abcpp'
p8604
(lp8605
S'b0914'
p8606
asS'T2DECAI'
p8607
(lp8608
S'b0954'
p8609
asS'PLIPA2A140pp'
p8610
(lp8611
S'b3821'
p8612
asS'F6PA'
p8613
(lp8614
S'b0825'
p8615
aS'b3946'
p8616
asS'FRUtex'
p8617
(lp8618
S'b2215'
p8619
aS'b0241'
p8620
aS'b1377'
p8621
aS'b0929'
p8622
asS'NO2t2rpp'
p8623
(lp8624
S'b3367'
p8625
aS'b1223'
p8626
asS'UM3PL'
p8627
(lp8628
S'b4233'
p8629
asS'MI1PP'
p8630
(lp8631
S'b2533'
p8632
asS'LEUabcpp'
p8633
(lp8634
(lp8635
S'b3454'
p8636
aS'b3455'
p8637
aS'b3456'
p8638
aS'b3457'
p8639
aS'b3458'
p8640
aa(lp8641
S'b3454'
p8642
aS'b3455'
p8643
aS'b3456'
p8644
aS'b3457'
p8645
aS'b3460'
p8646
aasS'ILETRS'
p8647
(lp8648
S'b0026'
p8649
asS'PHEtex'
p8650
(lp8651
S'b2215'
p8652
aS'b0241'
p8653
aS'b1377'
p8654
aS'b0929'
p8655
asS'ECA4COLIPAtex'
p8656
(lp8657
g13
asS'EX_kdo2lipid4_LPAREN_e_RPAREN_'
p8658
(lp8659
g13
asS'FUMtex'
p8660
(lp8661
S'b2215'
p8662
aS'b0241'
p8663
aS'b1377'
p8664
aS'b0929'
p8665
asS'PPPNDO'
p8666
(lp8667
(lp8668
S'b2538'
p8669
aS'b2539'
p8670
aS'b2540'
p8671
aS'b2542'
p8672
aasS'NTP5'
p8673
(lp8674
S'b4161'
p8675
asS'PLIPA2A181pp'
p8676
(lp8677
S'b3821'
p8678
asS'ACGAMK'
p8679
(lp8680
S'b1119'
p8681
asS'MALTTTRtexi'
p8682
(lp8683
S'b4036'
p8684
asS'PLIPA2E160pp'
p8685
(lp8686
S'b3821'
p8687
asS'PAPA120'
p8688
(lp8689
S'b1278'
p8690
asS'EX_cobalt2_LPAREN_e_RPAREN_'
p8691
(lp8692
g13
asS'DHCINDO'
p8693
(lp8694
S'b0348'
p8695
asS'R15BPK'
p8696
(lp8697
S'b4094'
p8698
asS'CINNDO'
p8699
(lp8700
(lp8701
S'b2538'
p8702
aS'b2539'
p8703
aS'b2540'
p8704
aS'b2542'
p8705
aasS'LIPAHTex'
p8706
(lp8707
S'b0622'
p8708
asS'EX_h2o_LPAREN_e_RPAREN_'
p8709
(lp8710
g13
asS'MOAT'
p8711
(lp8712
S'b3633'
p8713
asS'TDPGDH'
p8714
(lp8715
S'b2041'
p8716
aS'b3788'
p8717
asS'PGSA141'
p8718
(lp8719
S'b1912'
p8720
asS'PGSA140'
p8721
(lp8722
S'b1912'
p8723
asS'CPPPGO'
p8724
(lp8725
S'b2436'
p8726
asS'PE141abcpp'
p8727
(lp8728
S'b0914'
p8729
asS'H2Stex'
p8730
(lp8731
S'b2215'
p8732
aS'b0241'
p8733
aS'b1377'
p8734
aS'b0929'
p8735
asS'NODOx'
p8736
(lp8737
S'b2552'
p8738
asS'NNAM'
p8739
(lp8740
S'b1768'
p8741
asS'CYTBD2pp'
p8742
(lp8743
(lp8744
S'b0978'
p8745
aS'b0979'
p8746
aasS'ASAD'
p8747
(lp8748
S'b3433'
p8749
asS'3HAD140'
p8750
(lp8751
S'b0954'
p8752
aS'b0180'
p8753
asS'MANAO'
p8754
(lp8755
S'b4323'
p8756
asS'RZ5PP'
p8757
(lp8758
S'b0638'
p8759
asS'HPYRRx'
p8760
(lp8761
S'b1033'
p8762
aS'b3553'
p8763
asS'CLPNS120pp'
p8764
(lp8765
S'b1249'
p8766
aS'b0789'
p8767
asS'ADMDC'
p8768
(lp8769
S'b0120'
p8770
asS'EX_lyx_L_LPAREN_e_RPAREN_'
p8771
(lp8772
g13
asS'OAADC'
p8773
(lp8774
S'b1850'
p8775
asS'PAPA180pp'
p8776
(lp8777
S'b1278'
p8778
asS'IDOND'
p8779
(lp8780
S'b4267'
p8781
asS'UDPGD'
p8782
(lp8783
S'b2028'
p8784
asS'SULabcpp'
p8785
(lp8786
(lp8787
S'b2422'
p8788
aS'b2423'
p8789
aS'b2424'
p8790
aS'b3917'
p8791
aa(lp8792
S'b2422'
p8793
aS'b2423'
p8794
aS'b2424'
p8795
aS'b2425'
p8796
aa(lp8797
S'b0763'
p8798
aS'b0764'
p8799
aS'b0765'
p8800
aasS'CMPtex'
p8801
(lp8802
S'b2215'
p8803
aS'b0241'
p8804
aS'b1377'
p8805
aS'b0929'
p8806
asS'TMAOR2pp'
p8807
(lp8808
(lp8809
S'b1872'
p8810
aS'b1873'
p8811
aa(lp8812
S'b0996'
p8813
aS'b0997'
p8814
aasS'EX_orot_LPAREN_e_RPAREN_'
p8815
(lp8816
g13
asS'FECRMUtpp'
p8817
(lp8818
g13
asS'DDGLCNtex'
p8819
(lp8820
S'b2215'
p8821
aS'b0241'
p8822
aS'b1377'
p8823
aS'b0929'
p8824
asS'EX_so3_LPAREN_e_RPAREN_'
p8825
(lp8826
g13
asS'MTAN'
p8827
(lp8828
S'b0159'
p8829
asS'EX_mg2_LPAREN_e_RPAREN_'
p8830
(lp8831
g13
asS'MOBDabcpp'
p8832
(lp8833
(lp8834
S'b2422'
p8835
aS'b2423'
p8836
aS'b2424'
p8837
aS'b2425'
p8838
aa(lp8839
S'b2422'
p8840
aS'b2423'
p8841
aS'b2424'
p8842
aS'b3917'
p8843
aa(lp8844
S'b0763'
p8845
aS'b0764'
p8846
aS'b0765'
p8847
aasS'H2SO'
p8848
(lp8849
g13
asS'PROt2rpp'
p8850
(lp8851
S'b4111'
p8852
asS'MLDEP2pp'
p8853
(lp8854
g13
asS'TDECOAI'
p8855
(lp8856
S'b3846'
p8857
asS'TTDCAtexi'
p8858
(lp8859
S'b2344'
p8860
asS'RNTR2c'
p8861
(lp8862
(lp8863
S'b2895'
p8864
aS'b3924'
p8865
aS'b4237'
p8866
aS'b4238'
p8867
aa(lp8868
S'b0684'
p8869
aS'b3924'
p8870
aS'b4237'
p8871
aS'b4238'
p8872
aa(lp8873
S'b2895'
p8874
aS'b4238'
p8875
aa(lp8876
S'b0684'
p8877
aS'b4238'
p8878
aasS'AAMYL'
p8879
(lp8880
S'b1927'
p8881
asS'COBALT2tex'
p8882
(lp8883
S'b2215'
p8884
aS'b0241'
p8885
aS'b1377'
p8886
aS'b0929'
p8887
asS'14GLUCANtexi'
p8888
(lp8889
S'b4036'
p8890
asS'G3PGabcpp'
p8891
(lp8892
(lp8893
S'b3450'
p8894
aS'b3451'
p8895
aS'b3452'
p8896
aS'b3453'
p8897
aasS'LCTSt3ipp'
p8898
(lp8899
S'b1528'
p8900
aS'b0070'
p8901
aS'b2170'
p8902
asS'NO3t7pp'
p8903
(lp8904
S'b1469'
p8905
aS'b1223'
p8906
asS'CHLtex'
p8907
(lp8908
S'b2215'
p8909
aS'b0241'
p8910
aS'b1377'
p8911
aS'b0929'
p8912
asS'EX_ser_D_LPAREN_e_RPAREN_'
p8913
(lp8914
g13
asS'MDDCP3pp'
p8915
(lp8916
S'b2010'
p8917
aS'b0632'
p8918
aS'b0839'
p8919
aS'b3182'
p8920
asS'CDPMEK'
p8921
(lp8922
S'b1208'
p8923
asS'CU1abcpp'
p8924
(lp8925
S'b0484'
p8926
asS'ABUTtex'
p8927
(lp8928
S'b2215'
p8929
aS'b0241'
p8930
aS'b1377'
p8931
aS'b0929'
p8932
asS'PLIPA1G180pp'
p8933
(lp8934
S'b3821'
p8935
as.