(dp0
S'EX_pi_LPAREN_e_RPAREN_'
p1
S'-0.0710436151442'
p2
sS'EX_co2_LPAREN_e_RPAREN_'
p3
S'2.03712322932'
p4
sS'EX_o2_LPAREN_e_RPAREN_'
p5
S'-1.96409449685'
p6
sS'EX_nh4_LPAREN_e_RPAREN_'
p7
S'-0.621310758336'
p8
sS'EX_h2o_LPAREN_e_RPAREN_'
p9
S'3.6920652482'
p10
sS'EX_h_LPAREN_e_RPAREN_'
p11
S'0.572038074169'
p12
sS'Biomass_SCO'
p13
S'0.0699034204532'
p14
sS'EX_glc_LPAREN_e_RPAREN_'
p15
S'-0.8'
p16
s.