(dp0
S'CSND'
p1
(lp2
S'SCO4634'
p3
asS'GTPDPDP'
p4
(lp5
S'SCO3093'
p6
aS'SCO3348'
p7
asS'TDPGDH'
p8
(lp9
S'SCO0749'
p10
aS'SCO6179'
p11
asS'PMEACPE'
p12
(lp13
S''
p14
asS'GLYBabc'
p15
(lp16
(lp17
S'SCO2930'
p18
aS'SCO2931'
p19
aS'SCO2932'
p20
aS'SCO2933'
p21
aa(lp22
S'SCO6062'
p23
aS'SCO6063'
p24
aS'SCO6064'
p25
aS'SCO6065'
p26
aasS'XTSNH'
p27
(lp28
S'SCO3779'
p29
asS'DDPA'
p30
(lp31
S'SCO2115'
p32
aS'SCO3210'
p33
asS'ACPPATi160'
p34
(lp35
g14
asS'P5CD'
p36
(lp37
S'SCO5520'
p38
asS'EAR110x'
p39
(lp40
S'SCO1814'
p41
asS'P5CR'
p42
(lp43
S'SCO3337'
p44
asS'SPRMS'
p45
(lp46
S'SCO3655'
p47
aS'SCO2455'
p48
asS'GLUTRR'
p49
(lp50
S'SCO3319'
p51
asS'GLUTRS'
p52
(lp53
S'SCO5547'
p54
asS'NTD1e'
p55
(lp56
S'SCO4152'
p57
asS'MALTTTRabc'
p58
(lp59
(lp60
S'SCO2229'
p61
aS'SCO2230'
p62
aS'SCO2231'
p63
aS'SCO4240'
p64
aasS'TARTt2_3'
p65
(lp66
g14
asS'3OAR70'
p67
(lp68
S'SCO1815'
p69
aS'SCO1345'
p70
aS'SCO1346'
p71
aS'SCO4501'
p72
aS'SCO1831'
p73
aS'SCO4681'
p74
aS'SCO0330'
p75
asS'MG2t'
p76
(lp77
S'SCO1667'
p78
aS'SCO5157'
p79
asS'KAS15'
p80
(lp81
S'SCO1271'
p82
aS'SCO2388'
p83
a(lp84
S'SCO2389'
p85
aS'SCO6564'
p86
aaS'SCO0549'
p87
aS'SCO1267'
p88
aS'SCO1272'
p89
asS'KAS14'
p90
(lp91
S'SCO0548'
p92
aS'SCO2390'
p93
aS'SCO1266'
p94
asS'CO2t'
p95
(lp96
S's0001'
p97
asS'G5SADs'
p98
(lp99
S's0001'
p100
asS'S2FE2SS2'
p101
(lp102
(lp103
S'SCO1921'
p104
aS'SCO1922'
p105
aS'SCO1924'
p106
aS'SCO1925'
p107
aasS'PANTS'
p108
(lp109
S'SCO3383'
p110
asS'E4PD'
p111
(lp112
S'SCO1947'
p113
aS'SCO7040'
p114
aS'SCO7511'
p115
asS'SCYSDS'
p116
(lp117
S'SCO1921'
p118
asS'MG2uabc'
p119
(lp120
S'SCO2499'
p121
asS'EX_leu_DASH_L_LPAREN_e_RPAREN_'
p122
(lp123
g14
asS'PUNP4'
p124
(lp125
S'SCO4917'
p126
asS'ACOAD1f'
p127
(lp128
S'SCO1690'
p129
aS'SCO2774'
p130
aS'SCO6787'
p131
aS'SCO2779'
p132
asS'ACLS'
p133
(lp134
(lp135
S'SCO5512'
p136
aS'SCO5513'
p137
aaS'SCO2769'
p138
asS'PUNP5'
p139
(lp140
S'SCO4917'
p141
asS'EX_meoh_LPAREN_e_RPAREN_'
p142
(lp143
g14
asS'GLYCTO1'
p144
(lp145
S'SCO2925'
p146
asS'ALLTNt2r'
p147
(lp148
S'SCO6417'
p149
aS'SCO7500'
p150
asS'GLYCTO3'
p151
(lp152
S'SCO2925'
p153
asS'PUNP3'
p154
(lp155
S'SCO4917'
p156
asS'COELICHELINR2'
p157
(lp158
g14
asS'COELICHELINR3'
p159
(lp160
g14
asS'COELICHELINR1'
p161
(lp162
g14
asS'MEOHtr'
p163
(lp164
S's0001'
p165
asS'DAPAT'
p166
(lp167
g14
asS'EX_rmn_LPAREN_e_RPAREN_'
p168
(lp169
g14
asS'PPND'
p170
(lp171
S'SCO1761'
p172
aS'SCO3221'
p173
asS'DADNt2'
p174
(lp175
g14
asS'ADSL2r'
p176
(lp177
S'SCO1254'
p178
asS'AAMYLe'
p179
(lp180
S'SCO2226'
p181
asS'ACONIs'
p182
(lp183
S's0001'
p184
asS'UAGPT3'
p185
(lp186
S'SCO2084'
p187
asS'ASPTA'
p188
(lp189
S'SCO4645'
p190
aS'SCO3658'
p191
asS'EAR110y'
p192
(lp193
S'SCO1814'
p194
asS'KYN'
p195
(lp196
S'SCO3645'
p197
asS'LEUTA'
p198
(lp199
S'SCO1546'
p200
aS'SCO5523'
p201
asS'EAR121y'
p202
(lp203
S'SCO1814'
p204
asS'EAR121x'
p205
(lp206
S'SCO1814'
p207
asS'FEOXAMER1'
p208
(lp209
g14
asS'EX_tungs_LPAREN_e_RPAREN_'
p210
(lp211
g14
asS'ACPpdsact'
p212
(lp213
S'SCO0046'
p214
asS'COBALT2t'
p215
(lp216
S'SCO1667'
p217
aS'SCO5157'
p218
asS'FGLU'
p219
(lp220
g14
asS'3OAS110'
p221
(lp222
S'SCO0548'
p223
aS'SCO2390'
p224
aS'SCO1266'
p225
asS'GLYCLTt2i'
p226
(lp227
S'SCO3029'
p228
asS'TMPK'
p229
(lp230
S'SCO5562'
p231
asS'3OARi60'
p232
(lp233
S'SCO1815'
p234
aS'SCO1345'
p235
aS'SCO1346'
p236
aS'SCO4501'
p237
aS'SCO1831'
p238
aS'SCO4681'
p239
aS'SCO0330'
p240
asS'IPPMIb'
p241
(lp242
(lp243
S'SCO5553'
p244
aS'SCO5554'
p245
aasS'EX_ump_LPAREN_e_RPAREN_'
p246
(lp247
g14
asS'3HADai110'
p248
(lp249
g14
asS'EX_arab_DASH_L_LPAREN_e_RPAREN_'
p250
(lp251
g14
asS'PPA_1'
p252
(lp253
S'SCO3547'
p254
asS'MOHMT'
p255
(lp256
S'SCO2256'
p257
asS'3OARi80'
p258
(lp259
S'SCO1815'
p260
aS'SCO1345'
p261
aS'SCO1346'
p262
aS'SCO4501'
p263
aS'SCO1831'
p264
aS'SCO4681'
p265
aS'SCO0330'
p266
asS'PSD170'
p267
(lp268
S'SCO6468'
p269
asS'DHDPS'
p270
(lp271
S'SCO1889'
p272
aS'SCO1912'
p273
aS'SCO5744'
p274
aS'SCO6292'
p275
asS'HCYSMT'
p276
(lp277
S'SCO6137'
p278
asS'ALATA_D2'
p279
(lp280
S'SCO1087'
p281
aS'SCO4837'
p282
aS'SCO5470'
p283
aS'SCO5364'
p284
asS'EDA'
p285
(lp286
S'SCO0852'
p287
aS'SCO2298'
p288
aS'SCO3473'
p289
aS'SCO3495'
p290
asS'APAT2r'
p291
(lp292
S'SCO5676'
p293
aS'SCO7034'
p294
aS'SCO3622'
p295
asS'PINOSi180'
p296
(lp297
S'SCO1527'
p298
asS'ACPSredL'
p299
(lp300
S'SCO4744'
p301
asS'ACPSredN'
p302
(lp303
S'SCO4744'
p304
asS'FEOXAMEexs'
p305
(lp306
S's0001'
p307
asS'FRUK'
p308
(lp309
S'SCO3197'
p310
asS'ACPSredQ'
p311
(lp312
S'SCO4744'
p313
asS'ILEDxi'
p314
(lp315
S'SCO4089'
p316
asS'CLPNSIIi140'
p317
(lp318
S'SCO1389'
p319
asS'PRPPS'
p320
(lp321
S'SCO0782'
p322
aS'SCO3123'
p323
asS'DPR'
p324
(lp325
S'SCO6562'
p326
asS'XYLabc'
p327
(lp328
(lp329
S'SCO6009'
p330
aS'SCO6010'
p331
aS'SCO6011'
p332
aasS'EX_14glucan_LPAREN_e_RPAREN_'
p333
(lp334
g14
asS'FERO'
p335
(lp336
(lp337
S'SCO3439'
p338
aS'SCO3440'
p339
aS'SCO6712'
p340
aasS'PC11M'
p341
(lp342
S'SCO1855'
p343
asS'FTHFD'
p344
(lp345
S'SCO4403'
p346
asS'AGPAT120'
p347
(lp348
S'SCO0920'
p349
aS'SCO1085'
p350
aS'SCO1228'
p351
aS'SCO1566'
p352
aS'SCO1759'
p353
aS'SCO2122'
p354
asS'FRD8'
p355
(lp356
(lp357
S'SCO0922'
p358
aS'SCO0923'
p359
aS'SCO0924'
p360
aasS'EX_pi_LPAREN_e_RPAREN_'
p361
(lp362
g14
asS'GLUPRT'
p363
(lp364
S'SCO4086'
p365
asS'ACALDt'
p366
(lp367
S's0001'
p368
asS'PGSA150'
p369
(lp370
S'SCO5753'
p371
asS'APG3PATi140'
p372
(lp373
g14
asS'IVCOATA'
p374
(lp375
S'SCO1271'
p376
aS'SCO2388'
p377
a(lp378
S'SCO2389'
p379
aS'SCO6564'
p380
aaS'SCO0549'
p381
aS'SCO1267'
p382
aS'SCO1272'
p383
asS'PEPCK'
p384
(lp385
S'SCO4979'
p386
asS'EX_ptrc_LPAREN_e_RPAREN_'
p387
(lp388
g14
asS'MCTP1A'
p389
(lp390
S'SCO3847'
p391
aS'SCO5301'
p392
aS'SCO2608'
p393
aS'SCO2090'
p394
asS'MCTP1B'
p395
(lp396
S'SCO3847'
p397
aS'SCO5301'
p398
asS'S4FE4ST'
p399
(lp400
(lp401
S'SCO1922'
p402
aS'SCO1924'
p403
aS'SCO1925'
p404
aasS'3HAD170'
p405
(lp406
g14
asS'S4FE4SR'
p407
(lp408
(lp409
S'SCO1922'
p410
aS'SCO1924'
p411
aS'SCO1925'
p412
aasS'EX_1Dgali_LPAREN_e_RPAREN_'
p413
(lp414
g14
asS'CFL'
p415
(lp416
S'SCO4506'
p417
asS'GMPS2'
p418
(lp419
S'SCO4785'
p420
asS'NAt3'
p421
(lp422
S'SCO1962'
p423
asS'EX_ppa_LPAREN_e_RPAREN_'
p424
(lp425
g14
asS'HPYRI'
p426
(lp427
S'SCO6206'
p428
asS'APHai170'
p429
(lp430
S'SCO5576'
p431
asS'AGMD'
p432
(lp433
S'SCO5527'
p434
asS'NTD6e'
p435
(lp436
S'SCO4152'
p437
asS'PAPAai150'
p438
(lp439
g14
asS'AGMT'
p440
(lp441
S'SCO2770'
p442
asS'PACALDt2r'
p443
(lp444
g14
asS'DDPGA2'
p445
(lp446
g14
asS'HMPK4'
p447
(lp448
S'SCO5563'
p449
asS'HMPK3'
p450
(lp451
S'SCO5563'
p452
asS'HMPK2'
p453
(lp454
S'SCO5563'
p455
asS'HMPK1'
p456
(lp457
S'SCO5563'
p458
asS'TAUDO'
p459
(lp460
S'SCO7507'
p461
aS'SCO7357'
p462
asS'DAPabc'
p463
(lp464
g14
asS'IDOND2'
p465
(lp466
S'SCO1682'
p467
asS'ACOAD2f'
p468
(lp469
S'SCO1690'
p470
aS'SCO2774'
p471
aS'SCO6787'
p472
aS'SCO2779'
p473
asS'PIt2r'
p474
(lp475
S'SCO4138'
p476
aS'SCO1845'
p477
asS'LYSTRS'
p478
(lp479
S'SCO3303'
p480
aS'SCO3397'
p481
aS'SCO6384'
p482
asS'FE3Ri'
p483
(lp484
g14
asS'DDGLK'
p485
(lp486
S'SCO0851'
p487
aS'SCO3474'
p488
aS'SCO3494'
p489
asS'EX_abt_DASH_D_LPAREN_e_RPAREN_'
p490
(lp491
g14
asS'EX_tre_LPAREN_e_RPAREN_'
p492
(lp493
g14
asS'ACONTa'
p494
(lp495
S'SCO5999'
p496
asS'ACONTb'
p497
(lp498
S'SCO5999'
p499
asS'EX_chtbs_LPAREN_e_RPAREN_'
p500
(lp501
g14
asS'PRFGS'
p502
(lp503
(lp504
S'SCO4077'
p505
aS'SCO4078'
p506
aS'SCO4079'
p507
aasS'EARi120x'
p508
(lp509
S'SCO1814'
p510
asS'EARi120y'
p511
(lp512
S'SCO1814'
p513
asS'PSCVT'
p514
(lp515
S'SCO5212'
p516
aS'SCO6819'
p517
asS'MTRI'
p518
(lp519
S'SCO3014'
p520
asS'DM_2HYMEPH'
p521
(lp522
g14
asS'EX_nh4_LPAREN_e_RPAREN_'
p523
(lp524
g14
asS'ADNK1'
p525
(lp526
S'SCO2158'
p527
asS'IBMi'
p528
(lp529
(lp530
S'SCO4800'
p531
aS'SCO5415'
p532
aaS'SCO6833'
p533
asS'3OAR60'
p534
(lp535
S'SCO1815'
p536
aS'SCO1345'
p537
aS'SCO1346'
p538
aS'SCO4501'
p539
aS'SCO1831'
p540
aS'SCO4681'
p541
aS'SCO0330'
p542
asS'EX_g3pg_LPAREN_e_RPAREN_'
p543
(lp544
g14
asS'3HADi180'
p545
(lp546
g14
asS'MAN1PT'
p547
(lp548
S'SCO1388'
p549
aS'SCO3039'
p550
asS'EX_arg_DASH_L_LPAREN_e_RPAREN_'
p551
(lp552
g14
asS'EARai170y'
p553
(lp554
S'SCO1814'
p555
asS'EARai170x'
p556
(lp557
S'SCO1814'
p558
asS'ADCYRS'
p559
(lp560
S'SCO1848'
p561
asS'EX_malttr_LPAREN_e_RPAREN_'
p562
(lp563
g14
asS'DBTS'
p564
(lp565
S'SCO1246'
p566
asS'EAR120x'
p567
(lp568
S'SCO1814'
p569
asS'EAR120y'
p570
(lp571
S'SCO1814'
p572
asS'UPP3MT'
p573
(lp574
S'SCO1553'
p575
aS'SCO3317'
p576
asS'PC8XM'
p577
(lp578
S'SCO3282'
p579
asS'MLTP2'
p580
(lp581
S'SCO5444'
p582
asS'MLTP3'
p583
(lp584
S'SCO5444'
p585
asS'ECOAH12'
p586
(lp587
S'SCO6732'
p588
asS'EX_23ccmp_LPAREN_e_RPAREN_'
p589
(lp590
g14
asS'DMBZIDS'
p591
(lp592
g14
asS'CBL1abc'
p593
(lp594
g14
asS'SHCHF'
p595
(lp596
S'SCO1553'
p597
asS'CLPNSIIai150'
p598
(lp599
S'SCO1389'
p600
asS'EX_mobd_LPAREN_e_RPAREN_'
p601
(lp602
g14
asS'UM4PCP'
p603
(lp604
S'SCO6489'
p605
asS'UPP3S'
p606
(lp607
S'SCO3317'
p608
asS'ORNabc'
p609
(lp610
(lp611
S'SCO2828'
p612
aS'SCO2829'
p613
aS'SCO2830'
p614
aS'SCO2831'
p615
aasS'FEOXAMBabc'
p616
(lp617
(lp618
S'SCO7398'
p619
aS'SCO7399'
p620
aS'SCO7400'
p621
aaS'SCO2780'
p622
asS'PSP_L'
p623
(lp624
S'SCO1808'
p625
asS'IGPS'
p626
(lp627
S'SCO2039'
p628
aS'SCO3211'
p629
asS'VALTRS'
p630
(lp631
S'SCO2615'
p632
asS'PYDXt'
p633
(lp634
g14
asS'PYDXK'
p635
(lp636
g14
asS'MALTTRabc'
p637
(lp638
(lp639
S'SCO2229'
p640
aS'SCO2230'
p641
aS'SCO2231'
p642
aS'SCO4240'
p643
aasS'OXCDC'
p644
(lp645
S'SCO6584'
p646
asS'RMK'
p647
(lp648
S'SCO0814'
p649
asS'RMI'
p650
(lp651
g14
asS'PSSAai170'
p652
(lp653
S'SCO6467'
p654
asS'EX_glyc_LPAREN_e_RPAREN_'
p655
(lp656
g14
asS'3OAS100'
p657
(lp658
S'SCO0548'
p659
aS'SCO2390'
p660
aS'SCO1266'
p661
asS'CYSDS'
p662
(lp663
S'SCO0435'
p664
aS'SCO0731'
p665
aS'SCO3920'
p666
asS'EX_ni2_LPAREN_e_RPAREN_'
p667
(lp668
g14
asS'FACOAL60'
p669
(lp670
S'SCO6196'
p671
aS'SCO6195'
p672
aS'SCO2131'
p673
aS'SCO2444'
p674
aS'SCO2561'
p675
aS'SCO2720'
p676
aS'SCO3436'
p677
aS'SCO4006'
p678
aS'SCO5983'
p679
aS'SCO6552'
p680
aS'SCO6968'
p681
aS'SCO7244'
p682
asS'ORNTA'
p683
(lp684
S'SCO1223'
p685
asS'GALIGH'
p686
(lp687
S'SCO0274'
p688
aS'SCO0541'
p689
asS'NI2uabc'
p690
(lp691
(lp692
S'SCO6451'
p693
aS'SCO6452'
p694
aS'SCO6453'
p695
aS'SCO6454'
p696
aaS'SCO2499'
p697
asS'CU2abc'
p698
(lp699
S'SCO6460'
p700
asS'3OASai70'
p701
(lp702
S'SCO0548'
p703
aS'SCO2390'
p704
aS'SCO1266'
p705
asS'3OARi90'
p706
(lp707
S'SCO1815'
p708
aS'SCO1345'
p709
aS'SCO1346'
p710
aS'SCO4501'
p711
aS'SCO1831'
p712
aS'SCO4681'
p713
aS'SCO0330'
p714
asS'OPMEACPD'
p715
(lp716
g14
asS'MCTP2A'
p717
(lp718
S'SCO3847'
p719
aS'SCO5301'
p720
aS'SCO2608'
p721
aS'SCO2090'
p722
asS'AMAOTr'
p723
(lp724
S'SCO1245'
p725
asS'OPMEACPS'
p726
(lp727
S'SCO0548'
p728
aS'SCO2390'
p729
aS'SCO1266'
p730
asS'OPMEACPR'
p731
(lp732
S'SCO0330'
p733
aS'SCO1345'
p734
aS'SCO1346'
p735
aS'SCO1815'
p736
aS'SCO1831'
p737
aS'SCO4501'
p738
aS'SCO4681'
p739
asS'LIPATPT'
p740
(lp741
S'SCO6423'
p742
asS'APG3PATai150'
p743
(lp744
g14
asS'3OASi180'
p745
(lp746
S'SCO0548'
p747
aS'SCO2390'
p748
aS'SCO1266'
p749
asS'EX_n2o_LPAREN_e_RPAREN_'
p750
(lp751
g14
asS'AGPATi170'
p752
(lp753
S'SCO0920'
p754
aS'SCO1085'
p755
aS'SCO1228'
p756
aS'SCO1566'
p757
aS'SCO1759'
p758
aS'SCO2122'
p759
asS'CLPNSIIi150'
p760
(lp761
S'SCO1389'
p762
asS'CCCR'
p763
(lp764
S'SCO6473'
p765
asS'HPPK2'
p766
(lp767
S'SCO3401'
p768
asS'D_DASH_LACt2'
p769
(lp770
S'SCO3029'
p771
asS'ACACT1r'
p772
(lp773
S'SCO5399'
p774
aS'SCO6788'
p775
aS'SCO1324'
p776
aS'SCO4502'
p777
aS'SCO6027'
p778
asS'PINOSai150'
p779
(lp780
S'SCO1527'
p781
asS'UREAt'
p782
(lp783
S'SCO1659'
p784
aS'SCO4057'
p785
asS'PFK_3'
p786
(lp787
S'SCO5426'
p788
aS'SCO2119'
p789
aS'SCO1214'
p790
asS'PFK_2'
p791
(lp792
S'SCO5426'
p793
aS'SCO2119'
p794
aS'SCO1214'
p795
asS'AGPATai170'
p796
(lp797
S'SCO0920'
p798
aS'SCO1085'
p799
aS'SCO1228'
p800
aS'SCO1566'
p801
aS'SCO1759'
p802
aS'SCO2122'
p803
asS'Piuabc'
p804
(lp805
(lp806
S'SCO4139'
p807
aS'SCO4140'
p808
aS'SCO4141'
p809
aS'SCO4142'
p810
aaS'SCO2428'
p811
a(lp812
S'SCO6814'
p813
aS'SCO6815'
p814
aS'SCO6816'
p815
aasS'NTPTP1'
p816
(lp817
S'SCO2470'
p818
asS'EARi60x'
p819
(lp820
S'SCO1814'
p821
asS'EARi60y'
p822
(lp823
S'SCO1814'
p824
asS'PSD140'
p825
(lp826
S'SCO6468'
p827
asS'PSD141'
p828
(lp829
S'SCO6468'
p830
asS'GLYK'
p831
(lp832
S'SCO0509'
p833
aS'SCO1660'
p834
aS'SCO7004'
p835
asS'EPMt2'
p836
(lp837
g14
asS'MECDPDH2'
p838
(lp839
S'SCO5696'
p840
aS'SCO6767'
p841
asS'3NTD7e'
p842
(lp843
S'SCO2015'
p844
asS'APG3PATi150'
p845
(lp846
g14
asS'PGSA161'
p847
(lp848
S'SCO5753'
p849
asS'PGSA160'
p850
(lp851
S'SCO5753'
p852
asS'EX_his_DASH_L_LPAREN_e_RPAREN_'
p853
(lp854
g14
asS'3HAD160'
p855
(lp856
g14
asS'3HAD161'
p857
(lp858
g14
asS'DHQTi'
p859
(lp860
S'SCO1961'
p861
asS'DCH'
p862
(lp863
S'SCO2758'
p864
aS'SCO2786'
p865
aS'SCO2943'
p866
aS'SCO4860'
p867
asS'APTNAT'
p868
(lp869
g14
asS'THRD'
p870
(lp871
S'SCO6799'
p872
asS'RBFSb'
p873
(lp874
S'SCO1443'
p875
asS'RBFSa'
p876
(lp877
S'SCO1440'
p878
asS'GLDBRAN2'
p879
(lp880
S'SCO7338'
p881
aS'SCO5456'
p882
aS'SCO6082'
p883
asS'THRS'
p884
(lp885
S'SCO4293'
p886
aS'SCO5355'
p887
asS'CLPNS181'
p888
(lp889
S'SCO7081'
p890
asS'CLPNS180'
p891
(lp892
S'SCO7081'
p893
asS'3HADi70'
p894
(lp895
g14
asS'QULNS'
p896
(lp897
S'SCO2162'
p898
asS'EPMEACPR'
p899
(lp900
S'SCO1814'
p901
asS'ASNS1'
p902
(lp903
S'SCO0386'
p904
asS'H2O2t'
p905
(lp906
S's0001'
p907
asS'NTD11e'
p908
(lp909
S'SCO4152'
p910
asS'EX_xyl_DASH_D_LPAREN_e_RPAREN_'
p911
(lp912
g14
asS'ACPPAT141'
p913
(lp914
g14
asS'ACPPAT140'
p915
(lp916
g14
asS'PEAMNO'
p917
(lp918
g14
asS'EGMEACPR'
p919
(lp920
S'SCO1814'
p921
asS'EX_trp_DASH_L_LPAREN_e_RPAREN_'
p922
(lp923
g14
asS'DINSt2'
p924
(lp925
g14
asS'EX_sbt_DASH_D_LPAREN_e_RPAREN_'
p926
(lp927
g14
asS'EARi80y'
p928
(lp929
S'SCO1814'
p930
asS'CLPNSII161'
p931
(lp932
S'SCO1389'
p933
asS'BCOATA'
p934
(lp935
S'SCO1271'
p936
aS'SCO2388'
p937
a(lp938
S'SCO2389'
p939
aS'SCO6564'
p940
aaS'SCO0549'
p941
aS'SCO1267'
p942
aS'SCO1272'
p943
asS'SUCR'
p944
(lp945
S'SCO1394'
p946
aS'SCO2228'
p947
aS'SCO3780'
p948
aS'SCO7010'
p949
asS'CLPNSII160'
p950
(lp951
S'SCO1389'
p952
asS'DDGLCNt2r'
p953
(lp954
g14
asS'ACPPATi140'
p955
(lp956
g14
asS'FUMAC'
p957
(lp958
S'SCO4580'
p959
asS'3OARi180'
p960
(lp961
S'SCO1815'
p962
aS'SCO1345'
p963
aS'SCO1346'
p964
aS'SCO4501'
p965
aS'SCO1831'
p966
aS'SCO4681'
p967
aS'SCO0330'
p968
asS'PGSA181'
p969
(lp970
S'SCO5753'
p971
asS'PGSA180'
p972
(lp973
S'SCO5753'
p974
asS'GLYt2r'
p975
(lp976
S'SCO2914'
p977
asS'MDDEP4'
p978
(lp979
S'SCO6131'
p980
aS'SCO4439'
p981
asS'MDDEP1'
p982
(lp983
S'SCO6131'
p984
aS'SCO4439'
p985
asS'MDDEP2'
p986
(lp987
S'SCO6131'
p988
aS'SCO4439'
p989
asS'MDDEP3'
p990
(lp991
S'SCO6131'
p992
aS'SCO4439'
p993
asS'MN2t3'
p994
(lp995
S'SCO0776'
p996
aS'SCO1310'
p997
aS'SCO2772'
p998
aS'SCO6751'
p999
asS'5DGLCNR'
p1000
(lp1001
S'SCO1681'
p1002
asS'MALACPMT'
p1003
(lp1004
g14
asS'CIGAMS'
p1005
(lp1006
S'SCO1663'
p1007
asS'NTD7e'
p1008
(lp1009
S'SCO4152'
p1010
asS'AICART'
p1011
(lp1012
S'SCO4814'
p1013
asS'3OAR90'
p1014
(lp1015
S'SCO1815'
p1016
aS'SCO1345'
p1017
aS'SCO1346'
p1018
aS'SCO4501'
p1019
aS'SCO1831'
p1020
aS'SCO4681'
p1021
aS'SCO0330'
p1022
asS'COBALT2t3'
p1023
(lp1024
S'SCO0776'
p1025
aS'SCO1310'
p1026
aS'SCO2772'
p1027
aS'SCO6751'
p1028
asS'GPDDA4e'
p1029
(lp1030
S'SCO1565'
p1031
aS'SCO1968'
p1032
aS'SCO7550'
p1033
asS'GLNTRS'
p1034
(lp1035
g14
asS'UMPK'
p1036
(lp1037
S'SCO5626'
p1038
aS'SCO1760'
p1039
asS'ADK4i'
p1040
(lp1041
S'SCO4723'
p1042
asS'AMPTASEPG'
p1043
(lp1044
S'SCO2018'
p1045
aS'SCO2635'
p1046
aS'SCO2643'
p1047
asS'DMPPS'
p1048
(lp1049
S'SCO5058'
p1050
asS'PYRt2r'
p1051
(lp1052
g14
asS'ACOAD3f'
p1053
(lp1054
S'SCO1690'
p1055
aS'SCO2774'
p1056
aS'SCO6787'
p1057
asS'EARi150y'
p1058
(lp1059
S'SCO1814'
p1060
asS'EARi150x'
p1061
(lp1062
S'SCO1814'
p1063
asS'DHAt'
p1064
(lp1065
g14
asS'UAGCVT'
p1066
(lp1067
S'SCO2949'
p1068
aS'SCO5998'
p1069
asS'3HADai90'
p1070
(lp1071
g14
asS'NOt'
p1072
(lp1073
S's0001'
p1074
asS'HADPCOADH3'
p1075
(lp1076
S'SCO1591'
p1077
aS'SCO3834'
p1078
aS'SCO5385'
p1079
asS'EX_asp_DASH_L_LPAREN_e_RPAREN_'
p1080
(lp1081
g14
asS'CTPS2'
p1082
(lp1083
S'SCO1776'
p1084
asS'CTPS1'
p1085
(lp1086
S'SCO1776'
p1087
asS'URAt2r'
p1088
(lp1089
S'SCO1450'
p1090
asS'EAR130y'
p1091
(lp1092
S'SCO1814'
p1093
asS'EAR130x'
p1094
(lp1095
S'SCO1814'
p1096
asS'ACGApts'
p1097
(lp1098
(lp1099
S'SCO1391'
p1100
aS'SCO2905'
p1101
aS'SCO2906'
p1102
aS'SCO2907'
p1103
aS'SCO5841'
p1104
aasS'AHSERL2r'
p1105
(lp1106
S'SCO1294'
p1107
aS'SCO4958'
p1108
asS'EX_taur_LPAREN_e_RPAREN_'
p1109
(lp1110
g14
asS'CS'
p1111
(lp1112
S'SCO2736'
p1113
aS'SCO4388'
p1114
aS'SCO5832'
p1115
asS'FALDt'
p1116
(lp1117
S's0001'
p1118
asS'DM_ACT'
p1119
(lp1120
g14
asS'CITt7'
p1121
(lp1122
S'SCO2144'
p1123
asS'CITt3'
p1124
(lp1125
g14
asS'EX_zn2_LPAREN_e_RPAREN_'
p1126
(lp1127
g14
asS'CPPPGO2'
p1128
(lp1129
S'SCO2559'
p1130
asS'FEOXAMEabc'
p1131
(lp1132
S'SCO2780'
p1133
asS'NH4t'
p1134
(lp1135
S'SCO5583'
p1136
aS's0001'
p1137
asS'RBFK'
p1138
(lp1139
S'SCO5711'
p1140
asS'ACPScda'
p1141
(lp1142
S'SCO6673'
p1143
asS'METOX1s'
p1144
(lp1145
S's0001'
p1146
asS'DURIK1'
p1147
(lp1148
S'SCO5845'
p1149
asS'MALTHXabc'
p1150
(lp1151
(lp1152
S'SCO2229'
p1153
aS'SCO2230'
p1154
aS'SCO2231'
p1155
aS'SCO4240'
p1156
aasS'PYDAMt'
p1157
(lp1158
g14
asS'3OAS130'
p1159
(lp1160
S'SCO0548'
p1161
aS'SCO2390'
p1162
aS'SCO1266'
p1163
asS'ACACT2r'
p1164
(lp1165
S'SCO6788'
p1166
aS'SCO1324'
p1167
aS'SCO4502'
p1168
aS'SCO6027'
p1169
asS'FEOXAMER2'
p1170
(lp1171
g14
asS'EX_23cgmp_LPAREN_e_RPAREN_'
p1172
(lp1173
g14
asS'PYDAMK'
p1174
(lp1175
g14
asS'FEOXAMER3'
p1176
(lp1177
g14
asS'METTRS'
p1178
(lp1179
S'SCO3792'
p1180
aS'SCO6436'
p1181
asS'EX_fe3_LPAREN_e_RPAREN_'
p1182
(lp1183
g14
asS'PAPAi160'
p1184
(lp1185
g14
asS'ALATRS'
p1186
(lp1187
S'SCO1501'
p1188
asS'UPPRT'
p1189
(lp1190
S'SCO1488'
p1191
aS'SCO4041'
p1192
asS'ALDD1'
p1193
(lp1194
S'SCO4055'
p1195
asS'CELBabc'
p1196
(lp1197
(lp1198
S'SCO2795'
p1199
aS'SCO2796'
p1200
aS'SCO2797'
p1201
aS'SCO4240'
p1202
aa(lp1203
S'SCO4240'
p1204
aS'SCO7555'
p1205
aS'SCO7556'
p1206
aS'SCO7557'
p1207
aasS'UDPG4E'
p1208
(lp1209
S'SCO2988'
p1210
aS'SCO3137'
p1211
aS'SCO3326'
p1212
aS'SCO3739'
p1213
asS'PTPATi'
p1214
(lp1215
S'SCO5568'
p1216
asS'AGPATi160'
p1217
(lp1218
S'SCO0920'
p1219
aS'SCO1085'
p1220
aS'SCO1228'
p1221
aS'SCO1566'
p1222
aS'SCO1759'
p1223
aS'SCO2122'
p1224
asS'CLt3_2'
p1225
(lp1226
S'SCO5964'
p1227
aS'SCO6320'
p1228
asS'X5PL3E'
p1229
(lp1230
g14
asS'NTD10e'
p1231
(lp1232
S'SCO4152'
p1233
asS'PAPA170'
p1234
(lp1235
g14
asS'AGPAT140'
p1236
(lp1237
S'SCO0920'
p1238
aS'SCO1085'
p1239
aS'SCO1228'
p1240
aS'SCO1566'
p1241
aS'SCO1759'
p1242
aS'SCO2122'
p1243
asS'AGPAT141'
p1244
(lp1245
S'SCO0920'
p1246
aS'SCO1085'
p1247
aS'SCO1228'
p1248
aS'SCO1566'
p1249
aS'SCO1759'
p1250
aS'SCO2122'
p1251
asS'EX_spmd_LPAREN_e_RPAREN_'
p1252
(lp1253
g14
asS'GLNS'
p1254
(lp1255
S'SCO2198'
p1256
aS'SCO2210'
p1257
asS'URIH'
p1258
(lp1259
S'SCO3779'
p1260
asS'URIC'
p1261
(lp1262
(lp1263
S'SCO6210'
p1264
aS'SCO6211'
p1265
aasS'PSD150'
p1266
(lp1267
S'SCO6468'
p1268
asS'EX_k_LPAREN_e_RPAREN_'
p1269
(lp1270
g14
asS'RMNabc'
p1271
(lp1272
(lp1273
S'SCO0808'
p1274
aS'SCO0809'
p1275
aS'SCO0810'
p1276
aS'SCO0811'
p1277
aasS'EARai70y'
p1278
(lp1279
S'SCO1814'
p1280
asS'EARai70x'
p1281
(lp1282
S'SCO1814'
p1283
asS'PGSA170'
p1284
(lp1285
S'SCO5753'
p1286
asS'DDPGA'
p1287
(lp1288
S'SCO0852'
p1289
aS'SCO2298'
p1290
aS'SCO3473'
p1291
aS'SCO3495'
p1292
asS'3HAD110'
p1293
(lp1294
g14
asS'HMGL'
p1295
(lp1296
S'SCO2778'
p1297
asS'TRDR'
p1298
(lp1299
S'SCO3890'
p1300
aS'SCO6834'
p1301
a(lp1302
S'SCO0885'
p1303
aS'SCO7298'
p1304
aaS'SCO3889'
p1305
aS'SCO5419'
p1306
aS'SCO5438'
p1307
asS'PHYCBOXL'
p1308
(lp1309
g14
asS'DM_GERMD'
p1310
(lp1311
g14
asS'DM_GERMA'
p1312
(lp1313
g14
asS'DM_GERMC'
p1314
(lp1315
g14
asS'DM_GERMB'
p1316
(lp1317
g14
asS'EARi70y'
p1318
(lp1319
S'SCO1814'
p1320
asS'EARi70x'
p1321
(lp1322
S'SCO1814'
p1323
asS'WCOS'
p1324
(lp1325
S'SCO3181'
p1326
aS'SCO3827'
p1327
asS'METS'
p1328
(lp1329
S'SCO1657'
p1330
asS'EX_cit_LPAREN_e_RPAREN_'
p1331
(lp1332
g14
asS'PROD2'
p1333
(lp1334
g14
asS'REPHACCOAI'
p1335
(lp1336
S'SCO5144'
p1337
asS'PAPAai170'
p1338
(lp1339
g14
asS'DHFUTALS'
p1340
(lp1341
S'SCO4550'
p1342
asS'GPDDA5e'
p1343
(lp1344
S'SCO1565'
p1345
aS'SCO1968'
p1346
aS'SCO7550'
p1347
asS'ACPPAT150'
p1348
(lp1349
g14
asS'EX_pacald_LPAREN_e_RPAREN_'
p1350
(lp1351
g14
asS'NAt3_2'
p1352
(lp1353
S'SCO0015'
p1354
aS'SCO0285'
p1355
aS'SCO3564'
p1356
aS'SCO7832'
p1357
asS'EX_ins_LPAREN_e_RPAREN_'
p1358
(lp1359
g14
asS'CLPNSi160'
p1360
(lp1361
S'SCO7081'
p1362
asS'GLYCDx'
p1363
(lp1364
S'SCO6754'
p1365
asS'RBP4E'
p1366
(lp1367
g14
asS'PGSAi180'
p1368
(lp1369
S'SCO5753'
p1370
asS'ACOAD4f'
p1371
(lp1372
S'SCO1690'
p1373
aS'SCO2774'
p1374
aS'SCO6787'
p1375
asS'GALS3'
p1376
(lp1377
S'SCO0274'
p1378
aS'SCO0541'
p1379
asS'URIt2r'
p1380
(lp1381
g14
asS'HEXTT'
p1382
(lp1383
S'SCO4583'
p1384
asS'3NTD2e'
p1385
(lp1386
S'SCO2015'
p1387
asS'DXYLK'
p1388
(lp1389
S'SCO1170'
p1390
aS'SCO2462'
p1391
asS'PAPPT3'
p1392
(lp1393
S'SCO2087'
p1394
asS'PTRCt2'
p1395
(lp1396
S'SCO5057'
p1397
asS'APG3PATi180'
p1398
(lp1399
g14
asS'FLVR'
p1400
(lp1401
S'SCO6102'
p1402
asS'EX_5mtr_LPAREN_e_RPAREN_'
p1403
(lp1404
g14
asS'EAR90y'
p1405
(lp1406
S'SCO1814'
p1407
asS'EAR90x'
p1408
(lp1409
S'SCO1814'
p1410
asS'ADOCBLS'
p1411
(lp1412
S'SCO2177'
p1413
asS'DM_5DRIB'
p1414
(lp1415
g14
asS'LADGMDH'
p1416
(lp1417
S'SCO1948'
p1418
asS'3OAR80'
p1419
(lp1420
S'SCO1815'
p1421
aS'SCO1345'
p1422
aS'SCO1346'
p1423
aS'SCO4501'
p1424
aS'SCO1831'
p1425
aS'SCO4681'
p1426
aS'SCO0330'
p1427
asS'FCLT'
p1428
(lp1429
S'SCO5859'
p1430
asS'ORNDC'
p1431
(lp1432
S'SCO6035'
p1433
asS'GLCOAS'
p1434
(lp1435
g14
asS'PSSAi170'
p1436
(lp1437
S'SCO6467'
p1438
asS'DCYTD'
p1439
(lp1440
S'SCO4889'
p1441
aS'SCO5680'
p1442
asS'NO2t2r'
p1443
(lp1444
S'SCO2959'
p1445
aS'SCO0213'
p1446
asS'MOCOS'
p1447
(lp1448
S'SCO3181'
p1449
aS'SCO3827'
p1450
asS'DTARTD'
p1451
(lp1452
S'SCO5044'
p1453
asS'RNDR2c'
p1454
(lp1455
(lp1456
S'SCO5225'
p1457
aS'SCO5226'
p1458
aaS'SCO5805'
p1459
asS'EX_3amp_LPAREN_e_RPAREN_'
p1460
(lp1461
g14
asS'TUNGSabc'
p1462
(lp1463
(lp1464
S'SCO3704'
p1465
aS'SCO3705'
p1466
aS'SCO3706'
p1467
aasS'CLPNSi140'
p1468
(lp1469
S'SCO7081'
p1470
asS'PSDai150'
p1471
(lp1472
S'SCO6468'
p1473
asS'FACOAE100'
p1474
(lp1475
S'SCO1153'
p1476
aS'SCO2773'
p1477
asS'ADA'
p1478
(lp1479
S'SCO2546'
p1480
aS'SCO4644'
p1481
aS'SCO4901'
p1482
aS'SCO5662'
p1483
aS'SCO7268'
p1484
asS'GALCTND'
p1485
(lp1486
S'SCO2401'
p1487
aS'SCO3475'
p1488
asS'CYSTS'
p1489
(lp1490
S'SCO3077'
p1491
asS'ATPS4r'
p1492
(lp1493
(lp1494
S'SCO5366'
p1495
aS'SCO5367'
p1496
aS'SCO5368'
p1497
aS'SCO5369'
p1498
aS'SCO5370'
p1499
aS'SCO5371'
p1500
aS'SCO5372'
p1501
aS'SCO5373'
p1502
aS'SCO5374'
p1503
aa(lp1504
S'SCO5367'
p1505
aS'SCO5368'
p1506
aS'SCO5369'
p1507
aS'SCO5370'
p1508
aS'SCO5371'
p1509
aS'SCO5372'
p1510
aS'SCO5373'
p1511
aS'SCO5374'
p1512
aasS'EARi140x'
p1513
(lp1514
S'SCO1814'
p1515
asS'EARi140y'
p1516
(lp1517
S'SCO1814'
p1518
asS'PGSAi170'
p1519
(lp1520
S'SCO5753'
p1521
asS'CYSTL'
p1522
(lp1523
S'SCO0435'
p1524
aS'SCO0731'
p1525
asS'GTHPi'
p1526
(lp1527
S'SCO4444'
p1528
asS'EX_fru_LPAREN_e_RPAREN_'
p1529
(lp1530
g14
asS'CPC8MM'
p1531
(lp1532
S'SCO3282'
p1533
asS'TRSARr'
p1534
(lp1535
S'SCO6205'
p1536
asS'PDX5POi'
p1537
(lp1538
S'SCO4387'
p1539
aS'SCO4418'
p1540
asS'FE2t3'
p1541
(lp1542
S'SCO0776'
p1543
aS'SCO1310'
p1544
aS'SCO2772'
p1545
aS'SCO6751'
p1546
asS'EARai150y'
p1547
(lp1548
S'SCO1814'
p1549
asS'EARai150x'
p1550
(lp1551
S'SCO1814'
p1552
asS'DM_MSH'
p1553
(lp1554
g14
asS'3HADi140'
p1555
(lp1556
g14
asS'TAGSi170'
p1557
(lp1558
g14
asS'SPODM'
p1559
(lp1560
S'SCO0999'
p1561
aS'SCO2633'
p1562
aS'SCO5254'
p1563
asS'METAT'
p1564
(lp1565
S'SCO1476'
p1566
asS'3OAS120'
p1567
(lp1568
S'SCO0548'
p1569
aS'SCO2390'
p1570
aS'SCO1266'
p1571
asS'3OAS121'
p1572
(lp1573
S'SCO0548'
p1574
aS'SCO2390'
p1575
aS'SCO1266'
p1576
asS'EX_gACT_LPAREN_e_RPAREN_'
p1577
(lp1578
g14
asS'FE3abc'
p1579
(lp1580
(lp1581
S'SCO5923'
p1582
aS'SCO5924'
p1583
aS'SCO5925'
p1584
aasS'MUCCY'
p1585
(lp1586
S'SCO6698'
p1587
asS'CTECOAI6'
p1588
(lp1589
S'SCO6732'
p1590
asS'CTECOAI7'
p1591
(lp1592
S'SCO6732'
p1593
asS'ADSL1r'
p1594
(lp1595
S'SCO1254'
p1596
asS'CTECOAI8'
p1597
(lp1598
S'SCO6732'
p1599
asS'3OADPCOAT'
p1600
(lp1601
(lp1602
S'SCO6702'
p1603
aS'SCO6703'
p1604
aasS'DRBK'
p1605
(lp1606
S'SCO2748'
p1607
asS'EX_no_LPAREN_e_RPAREN_'
p1608
(lp1609
g14
asS'EX_LalaDglu_LPAREN_e_RPAREN_'
p1610
(lp1611
g14
asS'APG3PATai170'
p1612
(lp1613
g14
asS'PYDXNt'
p1614
(lp1615
g14
asS'LEUabc'
p1616
(lp1617
(lp1618
S'SCO0706'
p1619
aS'SCO0707'
p1620
aS'SCO0708'
p1621
aS'SCO0709'
p1622
aS'SCO0710'
p1623
aa(lp1624
S'SCO2008'
p1625
aS'SCO2009'
p1626
aS'SCO2010'
p1627
aS'SCO2011'
p1628
aS'SCO2012'
p1629
aa(lp1630
S'SCO7181'
p1631
aS'SCO7182'
p1632
aS'SCO7183'
p1633
aS'SCO7184'
p1634
aS'SCO7185'
p1635
aasS'BMOCOS'
p1636
(lp1637
S'SCO3181'
p1638
aS'SCO3827'
p1639
asS'APG3PAT170'
p1640
(lp1641
g14
asS'GDPMNP'
p1642
(lp1643
S'SCO0280'
p1644
asS'AGPATi150'
p1645
(lp1646
S'SCO0920'
p1647
aS'SCO1085'
p1648
aS'SCO1228'
p1649
aS'SCO1566'
p1650
aS'SCO1759'
p1651
aS'SCO2122'
p1652
asS'DHACOAH'
p1653
(lp1654
S'SCO6732'
p1655
aS'SCO4384'
p1656
asS'PSSAai150'
p1657
(lp1658
S'SCO6467'
p1659
asS'EX_cl_LPAREN_e_RPAREN_'
p1660
(lp1661
g14
asS'FACOAL180'
p1662
(lp1663
S'SCO6196'
p1664
aS'SCO6195'
p1665
aS'SCO2131'
p1666
aS'SCO2444'
p1667
aS'SCO2561'
p1668
aS'SCO2720'
p1669
aS'SCO3436'
p1670
aS'SCO4006'
p1671
aS'SCO5983'
p1672
aS'SCO6552'
p1673
aS'SCO6968'
p1674
aS'SCO7244'
p1675
asS'FACOAL181'
p1676
(lp1677
S'SCO6196'
p1678
aS'SCO6195'
p1679
aS'SCO2131'
p1680
aS'SCO2444'
p1681
aS'SCO2561'
p1682
aS'SCO2720'
p1683
aS'SCO3436'
p1684
aS'SCO4006'
p1685
aS'SCO5983'
p1686
aS'SCO6552'
p1687
aS'SCO6968'
p1688
aS'SCO7244'
p1689
asS'COELICHELINabc'
p1690
(lp1691
(lp1692
S'SCO0494'
p1693
aS'SCO0495'
p1694
aS'SCO0496'
p1695
aS'SCO0497'
p1696
aa(lp1697
S'SCO7398'
p1698
aS'SCO7399'
p1699
aS'SCO7400'
p1700
aasS'EX_nac_LPAREN_e_RPAREN_'
p1701
(lp1702
g14
asS'PAPA160'
p1703
(lp1704
g14
asS'PAPA161'
p1705
(lp1706
g14
asS'MOADSUx'
p1707
(lp1708
(lp1709
S'SCO5201'
p1710
aS'SCO5486'
p1711
aasS'EX_akg_LPAREN_e_RPAREN_'
p1712
(lp1713
g14
asS'23PDE7e'
p1714
(lp1715
S'SCO2015'
p1716
asS'AGPAT150'
p1717
(lp1718
S'SCO0920'
p1719
aS'SCO1085'
p1720
aS'SCO1228'
p1721
aS'SCO1566'
p1722
aS'SCO1759'
p1723
aS'SCO2122'
p1724
asS'ACACT3r'
p1725
(lp1726
S'SCO6788'
p1727
aS'SCO1324'
p1728
aS'SCO4502'
p1729
aS'SCO6027'
p1730
asS'AGPATai150'
p1731
(lp1732
S'SCO0920'
p1733
aS'SCO1085'
p1734
aS'SCO1228'
p1735
aS'SCO1566'
p1736
aS'SCO1759'
p1737
aS'SCO2122'
p1738
asS'PHETA1'
p1739
(lp1740
S'SCO1859'
p1741
aS'SCO2053'
p1742
aS'SCO3944'
p1743
aS'SCO4645'
p1744
aS'SCO3658'
p1745
asS'FMETTRS'
p1746
(lp1747
S'SCO1473'
p1748
asS'ECOAH9ir'
p1749
(lp1750
S'SCO6732'
p1751
asS'O2t'
p1752
(lp1753
S's0001'
p1754
asS'ATPHs'
p1755
(lp1756
S's0001'
p1757
asS'CPC3MT'
p1758
(lp1759
S'SCO1857'
p1760
asS'NTPP8'
p1761
(lp1762
S'SCO3100'
p1763
asS'NTPP7'
p1764
(lp1765
S'SCO3100'
p1766
asS'NTPP6'
p1767
(lp1768
S'SCO3100'
p1769
asS'NTPP5'
p1770
(lp1771
S'SCO3100'
p1772
asS'NTPP4'
p1773
(lp1774
S'SCO3100'
p1775
asS'NTPP3'
p1776
(lp1777
S'SCO3100'
p1778
asS'NTPP2'
p1779
(lp1780
S'SCO3100'
p1781
asS'DM_4CRSOL'
p1782
(lp1783
g14
asS'EX_din_LPAREN_e_RPAREN_'
p1784
(lp1785
g14
asS'MAN6PI'
p1786
(lp1787
S'SCO3025'
p1788
asS'GLYALDt'
p1789
(lp1790
S'SCO1659'
p1791
aS'SCO4057'
p1792
asS'LALADGLUt'
p1793
(lp1794
S'SCO3064'
p1795
asS'3HAD100'
p1796
(lp1797
g14
asS'LCADi'
p1798
(lp1799
S'SCO3486'
p1800
asS'IACGAMS2'
p1801
(lp1802
S'SCO4204'
p1803
asS'3OARai150'
p1804
(lp1805
S'SCO1815'
p1806
aS'SCO1345'
p1807
aS'SCO1346'
p1808
aS'SCO4501'
p1809
aS'SCO1831'
p1810
aS'SCO4681'
p1811
aS'SCO0330'
p1812
asS'IG3PS'
p1813
(lp1814
(lp1815
S'SCO2048'
p1816
aS'SCO2051'
p1817
aasS'ACSERt'
p1818
(lp1819
S'SCO2756'
p1820
asS'INSDH'
p1821
(lp1822
S'SCO6982'
p1823
asS'PSSA181'
p1824
(lp1825
S'SCO6467'
p1826
asS'PSSA180'
p1827
(lp1828
S'SCO6467'
p1829
asS'DRPA'
p1830
(lp1831
S'SCO4914'
p1832
asS'H2Ot'
p1833
(lp1834
S's0001'
p1835
asS'ACPPAT161'
p1836
(lp1837
g14
asS'ACPPAT160'
p1838
(lp1839
g14
asS'CSNt2r'
p1840
(lp1841
S'SCO5524'
p1842
aS'SCO5579'
p1843
asS'TYRL'
p1844
(lp1845
S'SCO2109'
p1846
asS'L_DASH_LACt2r'
p1847
(lp1848
S'SCO3029'
p1849
asS'DASYNi180'
p1850
(lp1851
S'SCO5628'
p1852
asS'EARi170y'
p1853
(lp1854
S'SCO1814'
p1855
asS'EARi170x'
p1856
(lp1857
S'SCO1814'
p1858
asS'ALAt2r'
p1859
(lp1860
S'SCO2914'
p1861
asS'EX_glyclt_LPAREN_e_RPAREN_'
p1862
(lp1863
g14
asS'EAR141y'
p1864
(lp1865
S'SCO1814'
p1866
asS'EAR141x'
p1867
(lp1868
S'SCO1814'
p1869
asS'SDPDS'
p1870
(lp1871
S'SCO5139'
p1872
asS'PPBNGS'
p1873
(lp1874
S'SCO3311'
p1875
asS'MLTG1'
p1876
(lp1877
S'SCO1394'
p1878
aS'SCO2228'
p1879
aS'SCO3780'
p1880
aS'SCO7010'
p1881
asS'LIPAMPL'
p1882
(lp1883
S'SCO6423'
p1884
asS'EX_hom_DASH_L_LPAREN_e_RPAREN_'
p1885
(lp1886
g14
asS'PC6AS'
p1887
(lp1888
S'SCO6971'
p1889
asS'PC6AR'
p1890
(lp1891
S'SCO3283'
p1892
asS'PSSAi180'
p1893
(lp1894
S'SCO6467'
p1895
asS'SBTO'
p1896
(lp1897
S'SCO6147'
p1898
asS'HISTRS'
p1899
(lp1900
S'SCO1508'
p1901
asS'CBPS'
p1902
(lp1903
(lp1904
S'SCO1483'
p1905
aS'SCO1484'
p1906
aasS'NTD5e'
p1907
(lp1908
S'SCO4152'
p1909
asS'EX_succ_LPAREN_e_RPAREN_'
p1910
(lp1911
g14
asS'PSSAi160'
p1912
(lp1913
S'SCO6467'
p1914
asS'GLUt2r'
p1915
(lp1916
S'SCO4498'
p1917
asS'TMPPP'
p1918
(lp1919
S'SCO2104'
p1920
asS'RAFt2'
p1921
(lp1922
g14
asS'FKYNH'
p1923
(lp1924
S'SCO3644'
p1925
asS'EX_phe_DASH_L_LPAREN_e_RPAREN_'
p1926
(lp1927
g14
asS'MMM'
p1928
(lp1929
S'SCO6832'
p1930
aS'SCO4869'
p1931
asS'MMSAD5'
p1932
(lp1933
S'SCO2726'
p1934
asS'MMSAD3'
p1935
(lp1936
S'SCO2726'
p1937
asS'MME'
p1938
(lp1939
S'SCO5398'
p1940
asS'ACOAD5f'
p1941
(lp1942
S'SCO1690'
p1943
aS'SCO2774'
p1944
aS'SCO6787'
p1945
asS'EAR80y'
p1946
(lp1947
S'SCO1814'
p1948
asS'CLPNSi150'
p1949
(lp1950
S'SCO7081'
p1951
asS'GLCNt2r'
p1952
(lp1953
S'SCO1680'
p1954
aS'SCO4991'
p1955
asS'DHFR'
p1956
(lp1957
g14
asS'GLUDxi'
p1958
(lp1959
S'SCO2999'
p1960
asS'VALTA'
p1961
(lp1962
S'SCO1546'
p1963
aS'SCO5523'
p1964
asS'MPTSS'
p1965
(lp1966
S'SCO5178'
p1967
asS'OGMEACPD'
p1968
(lp1969
g14
asS'ALAt4'
p1970
(lp1971
S'SCO7197'
p1972
asS'PPDK'
p1973
(lp1974
S'SCO0208'
p1975
aS'SCO2494'
p1976
asS'MI1PS2'
p1977
(lp1978
S'SCO3243'
p1979
aS'SCO3899'
p1980
aS'SCO6573'
p1981
asS'ADK1'
p1982
(lp1983
S'SCO4723'
p1984
asS'CDAabc'
p1985
(lp1986
(lp1987
S'SCO3223'
p1988
aS'SCO3224'
p1989
aaS'SCO3235'
p1990
asS'TECA2S'
p1991
(lp1992
g14
asS'OGMEACPR'
p1993
(lp1994
S'SCO0330'
p1995
aS'SCO1345'
p1996
aS'SCO1346'
p1997
aS'SCO1815'
p1998
aS'SCO1831'
p1999
aS'SCO4501'
p2000
aS'SCO4681'
p2001
asS'FRUpts'
p2002
(lp2003
(lp2004
S'SCO1391'
p2005
aS'SCO3196'
p2006
aS'SCO5841'
p2007
aasS'3HADi60'
p2008
(lp2009
g14
asS'APG3PAT181'
p2010
(lp2011
g14
asS'APG3PAT180'
p2012
(lp2013
g14
asS'OCOAT1'
p2014
(lp2015
(lp2016
S'SCO6702'
p2017
aS'SCO6703'
p2018
aasS'NO3t7'
p2019
(lp2020
S'SCO2959'
p2021
aS'SCO0213'
p2022
asS'AMMQLT9'
p2023
(lp2024
S'SCO4556'
p2025
aS'SCO5940'
p2026
asS'PINOS120'
p2027
(lp2028
S'SCO1527'
p2029
asS'UAAGDS'
p2030
(lp2031
S'SCO2089'
p2032
asS'3HADi150'
p2033
(lp2034
g14
asS'GLCP2'
p2035
(lp2036
S'SCO5444'
p2037
asS'RNDR3c'
p2038
(lp2039
(lp2040
S'SCO5225'
p2041
aS'SCO5226'
p2042
aaS'SCO5805'
p2043
asS'PGL'
p2044
(lp2045
S'SCO1939'
p2046
asS'ACONMT'
p2047
(lp2048
S'SCO3132'
p2049
asS'DUTPDP'
p2050
(lp2051
S'SCO5868'
p2052
asS'IPMD'
p2053
(lp2054
S'SCO5522'
p2055
asS'NMNPt'
p2056
(lp2057
S'SCO1442'
p2058
asS'23PDE4e'
p2059
(lp2060
S'SCO2015'
p2061
asS'FMNRx2'
p2062
(lp2063
S'SCO3295'
p2064
aS'SCO6102'
p2065
asS'DHDPRy'
p2066
(lp2067
S'SCO5739'
p2068
asS'PGCD'
p2069
(lp2070
S'SCO5515'
p2071
asS'3OXCOAT'
p2072
(lp2073
S'SCO6701'
p2074
aS'SCO6967'
p2075
aS'SCO3079'
p2076
aS'SCO6731'
p2077
asS'SALCpts'
p2078
(lp2079
g14
asS'TPI'
p2080
(lp2081
S'SCO0578'
p2082
aS'SCO1945'
p2083
asS'EX_bhb_LPAREN_e_RPAREN_'
p2084
(lp2085
g14
asS'APG3PAT161'
p2086
(lp2087
g14
asS'APG3PAT160'
p2088
(lp2089
g14
asS'AGPATi140'
p2090
(lp2091
S'SCO0920'
p2092
aS'SCO1085'
p2093
aS'SCO1228'
p2094
aS'SCO1566'
p2095
aS'SCO1759'
p2096
aS'SCO2122'
p2097
asS'CLPNSIIi180'
p2098
(lp2099
S'SCO1389'
p2100
asS'EX_nmn_LPAREN_e_RPAREN_'
p2101
(lp2102
g14
asS'PDE4'
p2103
(lp2104
S'SCO6075'
p2105
asS'PDE1'
p2106
(lp2107
S'SCO6075'
p2108
asS'CYTK1'
p2109
(lp2110
S'SCO1760'
p2111
asS'CYTK2'
p2112
(lp2113
S'SCO1760'
p2114
asS'TRPTRS'
p2115
(lp2116
S'SCO3334'
p2117
aS'SCO4839'
p2118
asS'AGPAT160'
p2119
(lp2120
S'SCO0920'
p2121
aS'SCO1085'
p2122
aS'SCO1228'
p2123
aS'SCO1566'
p2124
aS'SCO1759'
p2125
aS'SCO2122'
p2126
asS'AGPAT161'
p2127
(lp2128
S'SCO0920'
p2129
aS'SCO1085'
p2130
aS'SCO1228'
p2131
aS'SCO1566'
p2132
aS'SCO1759'
p2133
aS'SCO2122'
p2134
asS'L_DASH_LACD4'
p2135
(lp2136
S'SCO0763'
p2137
a(lp2138
S'SCO0815'
p2139
aS'SCO0816'
p2140
aS'SCO0817'
p2141
aasS'GLGCc'
p2142
(lp2143
S'SCO0393'
p2144
asS'NODOy'
p2145
(lp2146
S'SCO7428'
p2147
aS'SCO7094'
p2148
asS'3OASai170'
p2149
(lp2150
S'SCO0548'
p2151
aS'SCO2390'
p2152
aS'SCO1266'
p2153
asS'DHNPA2r'
p2154
(lp2155
S'SCO3400'
p2156
asS'NTD12e'
p2157
(lp2158
S'SCO4152'
p2159
asS'PAPA150'
p2160
(lp2161
g14
asS'FEOXAMBR1'
p2162
(lp2163
g14
asS'FEOXAMBR3'
p2164
(lp2165
g14
asS'FEOXAMBR2'
p2166
(lp2167
g14
asS'EX_4abut_LPAREN_e_RPAREN_'
p2168
(lp2169
g14
asS'DCTPD'
p2170
(lp2171
S'SCO3678'
p2172
asS'3HAD130'
p2173
(lp2174
g14
asS'OGMEACPS2'
p2175
(lp2176
S'SCO0548'
p2177
aS'SCO2390'
p2178
aS'SCO1266'
p2179
asS'DHORD5'
p2180
(lp2181
S'SCO1482'
p2182
asS'ENO'
p2183
(lp2184
S'SCO3096'
p2185
aS'SCO7638'
p2186
asS'CD2t4'
p2187
(lp2188
S'SCO0776'
p2189
aS'SCO1310'
p2190
aS'SCO2772'
p2191
aS'SCO6751'
p2192
asS'DASYNai170'
p2193
(lp2194
S'SCO5628'
p2195
asS'MGCH'
p2196
(lp2197
g14
asS'ASO3t8'
p2198
(lp2199
S'SCO7367'
p2200
aS'SCO3577'
p2201
aS'SCO3578'
p2202
asS'G1SAT'
p2203
(lp2204
S'SCO0401'
p2205
aS'SCO4469'
p2206
asS'HEPTT'
p2207
(lp2208
S'SCO4583'
p2209
asS'ARGAGMt7'
p2210
(lp2211
S'SCO6528'
p2212
asS'AKGDH2'
p2213
(lp2214
(lp2215
S'SCO4594'
p2216
aS'SCO4595'
p2217
aa(lp2218
S'SCO0681'
p2219
aS'SCO6269'
p2220
aS'SCO6270'
p2221
aasS'ACOAD6f'
p2222
(lp2223
S'SCO1690'
p2224
aS'SCO2774'
p2225
aS'SCO6787'
p2226
asS'ALCD19y'
p2227
(lp2228
S'SCO4945'
p2229
aS'SCO4271'
p2230
asS'EX_acgam_LPAREN_e_RPAREN_'
p2231
(lp2232
g14
asS'ACPPAT170'
p2233
(lp2234
g14
asS'G5SD'
p2235
(lp2236
S'SCO2585'
p2237
asS'PACCOATE'
p2238
(lp2239
S'SCO7470'
p2240
asS'EX_23cump_LPAREN_e_RPAREN_'
p2241
(lp2242
g14
asS'RBK_L1'
p2243
(lp2244
g14
asS'EX_lipoate_LPAREN_e_RPAREN_'
p2245
(lp2246
g14
asS'LYSDC'
p2247
(lp2248
S'SCO7311'
p2249
asS'PNTOt4'
p2250
(lp2251
S'SCO5229'
p2252
asS'ADNCYC'
p2253
(lp2254
S'SCO4928'
p2255
asS'AMPTASECG'
p2256
(lp2257
S'SCO2018'
p2258
aS'SCO2635'
p2259
aS'SCO2643'
p2260
asS'PDH'
p2261
(lp2262
S'SCO2183'
p2263
aS'SCO2371'
p2264
aS'SCO7124'
p2265
a(lp2266
S'SCO1269'
p2267
aS'SCO1270'
p2268
aS'SCO3815'
p2269
aa(lp2270
S'SCO0884'
p2271
aS'SCO3829'
p2272
aaS'SCO2180'
p2273
aS'SCO4919'
p2274
asS'GALUi'
p2275
(lp2276
S'SCO3182'
p2277
asS'INDOLEt2r'
p2278
(lp2279
g14
asS'CLPNS150'
p2280
(lp2281
S'SCO7081'
p2282
asS'DALAt2'
p2283
(lp2284
S'SCO2914'
p2285
asS'THRA2i'
p2286
(lp2287
S'SCO1087'
p2288
aS'SCO4837'
p2289
aS'SCO5470'
p2290
aS'SCO5364'
p2291
asS'TAGS120'
p2292
(lp2293
g14
asS'ACPPATai170'
p2294
(lp2295
g14
asS'EARi160x'
p2296
(lp2297
S'SCO1814'
p2298
asS'EARi160y'
p2299
(lp2300
S'SCO1814'
p2301
asS'CYRDAAT'
p2302
(lp2303
S'SCO1851'
p2304
asS'INSt2r'
p2305
(lp2306
g14
asS'COELICHELINUt'
p2307
(lp2308
(lp2309
S'SCO0491'
p2310
aS'SCO0493'
p2311
aasS'PSSAi150'
p2312
(lp2313
S'SCO6467'
p2314
asS'3OASai150'
p2315
(lp2316
S'SCO0548'
p2317
aS'SCO2390'
p2318
aS'SCO1266'
p2319
asS'NTD8e'
p2320
(lp2321
S'SCO4152'
p2322
asS'APH180'
p2323
(lp2324
S'SCO5576'
p2325
asS'APH181'
p2326
(lp2327
S'SCO5576'
p2328
asS'ETHAt2'
p2329
(lp2330
g14
asS'APH160'
p2331
(lp2332
S'SCO5576'
p2333
asS'APH161'
p2334
(lp2335
S'SCO5576'
p2336
asS'MLTP1'
p2337
(lp2338
S'SCO5444'
p2339
asS'GLYBt2'
p2340
(lp2341
S'SCO1225'
p2342
aS'SCO2336'
p2343
aS'SCO7395'
p2344
asS'ABTabc'
p2345
(lp2346
(lp2347
S'SCO1898'
p2348
aS'SCO1899'
p2349
aS'SCO1900'
p2350
aS'SCO4240'
p2351
aasS'FACOAE120'
p2352
(lp2353
S'SCO1153'
p2354
aS'SCO2773'
p2355
asS'EAR140x'
p2356
(lp2357
S'SCO1814'
p2358
asS'EAR140y'
p2359
(lp2360
S'SCO1814'
p2361
asS'EX_cu_LPAREN_e_RPAREN_'
p2362
(lp2363
g14
asS'BTS5'
p2364
(lp2365
S'SCO1244'
p2366
asS'MSHS'
p2367
(lp2368
S'SCO4151'
p2369
asS'CITL'
p2370
(lp2371
S'SCO2033'
p2372
aS'SCO6471'
p2373
asS'FANH'
p2374
(lp2375
S'SCO3644'
p2376
asS'ACCOAC'
p2377
(lp2378
S'SCO2445'
p2379
a(lp2380
S'SCO2777'
p2381
aS'SCO5535'
p2382
aS'SCO5536'
p2383
aaS'SCO4921'
p2384
aS'SCO6271'
p2385
asS'EX_cbi_LPAREN_e_RPAREN_'
p2386
(lp2387
g14
asS'NMNAT'
p2388
(lp2389
S'SCO2579'
p2390
asS'AKGDH'
p2391
(lp2392
(lp2393
S'SCO2181'
p2394
aS'SCO5281'
p2395
aa(lp2396
S'SCO0884'
p2397
aS'SCO7123'
p2398
aaS'SCO2180'
p2399
aS'SCO4919'
p2400
asS'BACCL'
p2401
(lp2402
S'SCO4927'
p2403
asS'3OASi90'
p2404
(lp2405
S'SCO0548'
p2406
aS'SCO2390'
p2407
aS'SCO1266'
p2408
asS'MTHFC'
p2409
(lp2410
S'SCO4824'
p2411
asS'GLUabc'
p2412
(lp2413
(lp2414
S'SCO5774'
p2415
aS'SCO5775'
p2416
aS'SCO5776'
p2417
aS'SCO5777'
p2418
aasS'UDCPDPS'
p2419
(lp2420
S'SCO2509'
p2421
asS'HSK'
p2422
(lp2423
S'SCO5356'
p2424
asS'3HADi160'
p2425
(lp2426
g14
asS'COCHL'
p2427
(lp2428
S'SCO1849'
p2429
asS'PPGPPDP'
p2430
(lp2431
S'SCO1513'
p2432
aS'SCO5794'
p2433
asS'PSDai170'
p2434
(lp2435
S'SCO6468'
p2436
asS'FORti'
p2437
(lp2438
S's0001'
p2439
asS'GLUDyi'
p2440
(lp2441
S'SCO4683'
p2442
asS'3OAR100'
p2443
(lp2444
S'SCO1815'
p2445
aS'SCO1345'
p2446
aS'SCO1346'
p2447
aS'SCO4501'
p2448
aS'SCO1831'
p2449
aS'SCO4681'
p2450
aS'SCO0330'
p2451
asS'CLPNSII181'
p2452
(lp2453
S'SCO1389'
p2454
asS'CLPNSII180'
p2455
(lp2456
S'SCO1389'
p2457
asS'PRAIi'
p2458
(lp2459
S'SCO2050'
p2460
asS'FEOXAMEUt'
p2461
(lp2462
g14
asS'DABTD'
p2463
(lp2464
g14
asS'LCTSabc'
p2465
(lp2466
(lp2467
S'SCO7408'
p2468
aS'SCO7409'
p2469
aS'SCO7410'
p2470
aasS'GHMT2'
p2471
(lp2472
S'SCO4837'
p2473
aS'SCO5470'
p2474
aS'SCO5364'
p2475
asS'EME'
p2476
(lp2477
S'SCO5398'
p2478
asS'3OASi140'
p2479
(lp2480
S'SCO0548'
p2481
aS'SCO2390'
p2482
aS'SCO1266'
p2483
asS'ADCPS1'
p2484
(lp2485
S'SCO1847'
p2486
asS'HPROb'
p2487
(lp2488
S'SCO3337'
p2489
asS'CYSTGL'
p2490
(lp2491
S'SCO3920'
p2492
asS'EX_pydxn_LPAREN_e_RPAREN_'
p2493
(lp2494
g14
asS'FBA3'
p2495
(lp2496
S'SCO3649'
p2497
asS'FBA2'
p2498
(lp2499
S'SCO3649'
p2500
asS'MLTG1e'
p2501
(lp2502
S'SCO7019'
p2503
aS'SCO7020'
p2504
asS'APG3PAT150'
p2505
(lp2506
g14
asS'CYTDH'
p2507
(lp2508
S'SCO3779'
p2509
asS'GUAPRT'
p2510
(lp2511
S'SCO3405'
p2512
asS'AGPAT170'
p2513
(lp2514
S'SCO0920'
p2515
aS'SCO1085'
p2516
aS'SCO1228'
p2517
aS'SCO1566'
p2518
aS'SCO1759'
p2519
aS'SCO2122'
p2520
asS'PTRCabc'
p2521
(lp2522
(lp2523
S'SCO5658'
p2524
aS'SCO5667'
p2525
aS'SCO5668'
p2526
aS'SCO5669'
p2527
aS'SCO5670'
p2528
aasS'EX_glcr_LPAREN_e_RPAREN_'
p2529
(lp2530
g14
asS'PAPA140'
p2531
(lp2532
g14
asS'PAPA141'
p2533
(lp2534
g14
asS'CYRDAS'
p2535
(lp2536
S'SCO1852'
p2537
asS'CYRDAR'
p2538
(lp2539
g14
asS'QMO3'
p2540
(lp2541
S's0001'
p2542
asS'EX_agm_LPAREN_e_RPAREN_'
p2543
(lp2544
g14
asS'ANPRT'
p2545
(lp2546
S'SCO2147'
p2547
aS'SCO3212'
p2548
asS'LYSt3'
p2549
(lp2550
S'SCO7308'
p2551
asS'CHLabc'
p2552
(lp2553
(lp2554
S'SCO2930'
p2555
aS'SCO2931'
p2556
aS'SCO2932'
p2557
aS'SCO2933'
p2558
aa(lp2559
S'SCO6062'
p2560
aS'SCO6063'
p2561
aS'SCO6064'
p2562
aS'SCO6065'
p2563
aasS'PSD180'
p2564
(lp2565
S'SCO6468'
p2566
asS'PSD181'
p2567
(lp2568
S'SCO6468'
p2569
asS'COELICHELINexs'
p2570
(lp2571
S's0001'
p2572
asS'Biomass_SCO'
p2573
(lp2574
g14
asS'3HAD120'
p2575
(lp2576
g14
asS'3HAD121'
p2577
(lp2578
g14
asS'6PHBG'
p2579
(lp2580
S'SCO2661'
p2581
aS'SCO6670'
p2582
asS'PROabc'
p2583
(lp2584
(lp2585
S'SCO4830'
p2586
aS'SCO4831'
p2587
aS'SCO4832'
p2588
aa(lp2589
S'SCO1620'
p2590
aS'SCO1621'
p2591
aasS'THRAi'
p2592
(lp2593
S'SCO1087'
p2594
aS'SCO4837'
p2595
aS'SCO5470'
p2596
aS'SCO5364'
p2597
asS'G1DH'
p2598
(lp2599
S'SCO1335'
p2600
asS'GARFT'
p2601
(lp2602
S'SCO4813'
p2603
asS'ADOCBIK'
p2604
(lp2605
S'SCO2173'
p2606
asS'EX_desferrioxamE_LPAREN_e_RPAREN_'
p2607
(lp2608
g14
asS'PPCDC'
p2609
(lp2610
S'SCO1477'
p2611
asS'GDPDPK'
p2612
(lp2613
S'SCO1513'
p2614
aS'SCO5794'
p2615
asS'UAGDP'
p2616
(lp2617
S'SCO3122'
p2618
asS'EX_inost_LPAREN_e_RPAREN_'
p2619
(lp2620
g14
asS'GLCP'
p2621
(lp2622
S'SCO5444'
p2623
asS'GLYCLTt4'
p2624
(lp2625
S'SCO1822'
p2626
asS'EHGLAT'
p2627
(lp2628
S'SCO4645'
p2629
aS'SCO3658'
p2630
asS'KARA1i'
p2631
(lp2632
S'SCO5514'
p2633
aS'SCO7154'
p2634
asS'UACMAMO'
p2635
(lp2636
S'SCO4773'
p2637
aS'SCO5050'
p2638
asS'INSH'
p2639
(lp2640
S'SCO3779'
p2641
asS'EX_coelichelin_LPAREN_e_RPAREN_'
p2642
(lp2643
g14
asS'EX_g3pe_LPAREN_e_RPAREN_'
p2644
(lp2645
g14
asS'GND'
p2646
(lp2647
S'SCO0975'
p2648
aS'SCO3877'
p2649
aS'SCO6658'
p2650
asS'ALAD_L'
p2651
(lp2652
S'SCO1773'
p2653
asS'GNK'
p2654
(lp2655
S'SCO1679'
p2656
asS'NADH10'
p2657
(lp2658
S'SCO3092'
p2659
aS'SCO7101'
p2660
aS'SCO7319'
p2661
aS'SCO6496'
p2662
aS'SCO0158'
p2663
aS'SCO4119'
p2664
asS'NADH17'
p2665
(lp2666
S'SCO4562'
p2667
a(lp2668
S'SCO4563'
p2669
aS'SCO4599'
p2670
aa(lp2671
S'SCO3392'
p2672
aS'SCO4564'
p2673
aS'SCO4600'
p2674
aa(lp2675
S'SCO4565'
p2676
aS'SCO4566'
p2677
aS'SCO4567'
p2678
aa(lp2679
S'SCO4568'
p2680
aS'SCO4569'
p2681
aS'SCO6560'
p2682
aa(lp2683
S'SCO4570'
p2684
aS'SCO4602'
p2685
aa(lp2686
S'SCO4571'
p2687
aS'SCO4603'
p2688
aa(lp2689
S'SCO4572'
p2690
aS'SCO4604'
p2691
aa(lp2692
S'SCO4573'
p2693
aS'SCO4605'
p2694
aaS'SCO4606'
p2695
a(lp2696
S'SCO4574'
p2697
aS'SCO6954'
p2698
aa(lp2699
S'SCO4575'
p2700
aS'SCO4607'
p2701
aaS'SCO4608'
p2702
asS'CLPNS141'
p2703
(lp2704
S'SCO7081'
p2705
asS'CLPNS140'
p2706
(lp2707
S'SCO7081'
p2708
asS'EX_damp_LPAREN_e_RPAREN_'
p2709
(lp2710
g14
asS'ACOAD7f'
p2711
(lp2712
S'SCO1690'
p2713
aS'SCO2774'
p2714
aS'SCO6787'
p2715
asS'MCCC'
p2716
(lp2717
(lp2718
S'SCO2776'
p2719
aS'SCO2777'
p2720
aasS'PSSAi140'
p2721
(lp2722
S'SCO6467'
p2723
asS'3OAS80'
p2724
(lp2725
S'SCO0548'
p2726
aS'SCO2390'
p2727
aS'SCO1266'
p2728
asS'ALAALAD'
p2729
(lp2730
S'SCO3596'
p2731
asS'EX_fald_LPAREN_e_RPAREN_'
p2732
(lp2733
g14
asS'DASYN161'
p2734
(lp2735
S'SCO5628'
p2736
asS'DADA'
p2737
(lp2738
S'SCO2546'
p2739
aS'SCO4644'
p2740
aS'SCO4901'
p2741
aS'SCO5662'
p2742
aS'SCO7268'
p2743
asS'PPAt4'
p2744
(lp2745
S'SCO5229'
p2746
asS'PSSA141'
p2747
(lp2748
S'SCO6467'
p2749
asS'PSSA140'
p2750
(lp2751
S'SCO6467'
p2752
asS'EX_thymd_LPAREN_e_RPAREN_'
p2753
(lp2754
g14
asS'APH170'
p2755
(lp2756
S'SCO5576'
p2757
asS'NTPP11'
p2758
(lp2759
S'SCO2902'
p2760
asS'NTPP10'
p2761
(lp2762
S'SCO2902'
p2763
asS'HGNTOR'
p2764
(lp2765
S'SCO1715'
p2766
asS'CPTRCA'
p2767
(lp2768
S'SCO6414'
p2769
asS'EX_duri_LPAREN_e_RPAREN_'
p2770
(lp2771
g14
asS'DM_AACALD'
p2772
(lp2773
g14
asS'GLCRD'
p2774
(lp2775
S'SCO2542'
p2776
asS'THZPSN3'
p2777
(lp2778
(lp2779
S'SCO2108'
p2780
aS'SCO5486'
p2781
aasS'EAR161y'
p2782
(lp2783
S'SCO1814'
p2784
asS'EAR161x'
p2785
(lp2786
S'SCO1814'
p2787
asS'ALLTN'
p2788
(lp2789
S'SCO6247'
p2790
asS'DASYN180'
p2791
(lp2792
S'SCO5628'
p2793
asS'DASYN181'
p2794
(lp2795
S'SCO5628'
p2796
asS'EX_ura_LPAREN_e_RPAREN_'
p2797
(lp2798
g14
asS'EX_lac_DASH_L_LPAREN_e_RPAREN_'
p2799
(lp2800
g14
asS'TAGSi160'
p2801
(lp2802
g14
asS'THIORDXi'
p2803
(lp2804
S'SCO2901'
p2805
a(lp2806
S'SCO0885'
p2807
aS'SCO7353'
p2808
aaS'SCO3889'
p2809
aS'SCO5419'
p2810
aS'SCO5438'
p2811
aS'SCO4444'
p2812
asS'EMCCCM'
p2813
(lp2814
S'SCO6472'
p2815
asS'PHCD'
p2816
(lp2817
S'SCO5520'
p2818
asS'HKYNH'
p2819
(lp2820
S'SCO3645'
p2821
asS'3OASi80'
p2822
(lp2823
S'SCO0548'
p2824
aS'SCO2390'
p2825
aS'SCO1266'
p2826
asS'EX_aso3_LPAREN_e_RPAREN_'
p2827
(lp2828
g14
asS'DASYN160'
p2829
(lp2830
S'SCO5628'
p2831
asS'ACPPATi150'
p2832
(lp2833
g14
asS'EX_ala_DASH_B_LPAREN_e_RPAREN_'
p2834
(lp2835
g14
asS'PINOS140'
p2836
(lp2837
S'SCO1527'
p2838
asS'PINOS141'
p2839
(lp2840
S'SCO1527'
p2841
asS'EAR150y'
p2842
(lp2843
S'SCO1814'
p2844
asS'EAR150x'
p2845
(lp2846
S'SCO1814'
p2847
asS'NTD9e'
p2848
(lp2849
S'SCO4152'
p2850
asS'MELTt2'
p2851
(lp2852
g14
asS'IZPN'
p2853
(lp2854
S'SCO3070'
p2855
asS'CBIuabc'
p2856
(lp2857
g14
asS'RNDR2'
p2858
(lp2859
(lp2860
S'SCO5225'
p2861
aS'SCO5226'
p2862
aa(lp2863
S'SCO0885'
p2864
aS'SCO5805'
p2865
aaS'SCO3889'
p2866
aS'SCO5419'
p2867
aS'SCO5438'
p2868
asS'RNDR1'
p2869
(lp2870
(lp2871
S'SCO5225'
p2872
aS'SCO5226'
p2873
aa(lp2874
S'SCO0885'
p2875
aS'SCO5805'
p2876
aaS'SCO3889'
p2877
aS'SCO5419'
p2878
aS'SCO5438'
p2879
asS'DM_ACONM'
p2880
(lp2881
g14
asS'RNDR1c'
p2882
(lp2883
(lp2884
S'SCO5225'
p2885
aS'SCO5226'
p2886
aaS'SCO5805'
p2887
asS'CLPNSII170'
p2888
(lp2889
S'SCO1389'
p2890
asS'3OAR110'
p2891
(lp2892
S'SCO1815'
p2893
aS'SCO1345'
p2894
aS'SCO1346'
p2895
aS'SCO4501'
p2896
aS'SCO1831'
p2897
aS'SCO4681'
p2898
aS'SCO0330'
p2899
asS'FUMt2_2'
p2900
(lp2901
S'SCO5436'
p2902
asS'3HADai70'
p2903
(lp2904
g14
asS'EARi90y'
p2905
(lp2906
S'SCO1814'
p2907
asS'EARi90x'
p2908
(lp2909
S'SCO1814'
p2910
asS'PGMT'
p2911
(lp2912
S'SCO7443'
p2913
asS'EAR181x'
p2914
(lp2915
S'SCO1814'
p2916
asS'DASYNi140'
p2917
(lp2918
S'SCO5628'
p2919
asS'4HGLSD'
p2920
(lp2921
S'SCO5520'
p2922
asS'HOMt2'
p2923
(lp2924
S'SCO4374'
p2925
aS'SCO3362'
p2926
asS'CHOLD'
p2927
(lp2928
S'SCO4829'
p2929
asS'AM4PCP'
p2930
(lp2931
S'SCO6489'
p2932
asS'EX_skm_LPAREN_e_RPAREN_'
p2933
(lp2934
g14
asS'3OASi150'
p2935
(lp2936
S'SCO0548'
p2937
aS'SCO2390'
p2938
aS'SCO1266'
p2939
asS'FESD2s'
p2940
(lp2941
S's0001'
p2942
asS'EX_dimp_LPAREN_e_RPAREN_'
p2943
(lp2944
g14
asS'APG3PAT141'
p2945
(lp2946
g14
asS'APG3PAT140'
p2947
(lp2948
g14
asS'MALTATr'
p2949
(lp2950
S'SCO7519'
p2951
asS'EX_CDA_LPAREN_e_RPAREN_'
p2952
(lp2953
g14
asS'NACt'
p2954
(lp2955
g14
asS'HCO3E'
p2956
(lp2957
S'SCO2093'
p2958
aS'SCO3562'
p2959
aS'SCO3721'
p2960
aS'SCO6055'
p2961
asS'EX_3gmp_LPAREN_e_RPAREN_'
p2962
(lp2963
g14
asS'XYLK2'
p2964
(lp2965
g14
asS'AGPAT180'
p2966
(lp2967
S'SCO0920'
p2968
aS'SCO1085'
p2969
aS'SCO1228'
p2970
aS'SCO1566'
p2971
aS'SCO1759'
p2972
aS'SCO2122'
p2973
asS'AGPAT181'
p2974
(lp2975
S'SCO0920'
p2976
aS'SCO1085'
p2977
aS'SCO1228'
p2978
aS'SCO1566'
p2979
aS'SCO1759'
p2980
aS'SCO2122'
p2981
asS'IPDDI'
p2982
(lp2983
S'SCO6750'
p2984
asS'5MTRt'
p2985
(lp2986
g14
asS'AGPATi180'
p2987
(lp2988
S'SCO0920'
p2989
aS'SCO1085'
p2990
aS'SCO1228'
p2991
aS'SCO1566'
p2992
aS'SCO1759'
p2993
aS'SCO2122'
p2994
asS'OCTNLL'
p2995
(lp2996
S'SCO6423'
p2997
asS'NO3R2'
p2998
(lp2999
(lp3000
S'SCO0216'
p3001
aS'SCO0217'
p3002
aS'SCO0218'
p3003
aS'SCO0219'
p3004
aa(lp3005
S'SCO4947'
p3006
aS'SCO4948'
p3007
aS'SCO4949'
p3008
aS'SCO4950'
p3009
aa(lp3010
S'SCO6532'
p3011
aS'SCO6533'
p3012
aS'SCO6534'
p3013
aS'SCO6535'
p3014
aaS'SCO2473'
p3015
asS'DMATT'
p3016
(lp3017
S'SCO0185'
p3018
aS'SCO0565'
p3019
aS'SCO5250'
p3020
aS'SCO6763'
p3021
asS'PHETRS'
p3022
(lp3023
(lp3024
S'SCO1594'
p3025
aS'SCO1595'
p3026
aasS'ACACT8r'
p3027
(lp3028
S'SCO6788'
p3029
aS'SCO1324'
p3030
aS'SCO4502'
p3031
aS'SCO6027'
p3032
asS'ICDHyr'
p3033
(lp3034
S'SCO7000'
p3035
asS'EX_vanlt_LPAREN_e_RPAREN_'
p3036
(lp3037
g14
asS'APHi150'
p3038
(lp3039
S'SCO5576'
p3040
asS'FBP'
p3041
(lp3042
S'SCO5047'
p3043
asS'NTD4e'
p3044
(lp3045
S'SCO4152'
p3046
asS'DADK'
p3047
(lp3048
S'SCO4723'
p3049
asS'MLTG2e'
p3050
(lp3051
S'SCO7019'
p3052
aS'SCO7020'
p3053
asS'THRPD'
p3054
(lp3055
g14
asS'FBA'
p3056
(lp3057
S'SCO3649'
p3058
asS'DXPS'
p3059
(lp3060
S'SCO6013'
p3061
aS'SCO6768'
p3062
asS'THRPS'
p3063
(lp3064
g14
asS'CBIAT'
p3065
(lp3066
S'SCO1851'
p3067
asS'URCN'
p3068
(lp3069
S'SCO3073'
p3070
asS'EX_pydam_LPAREN_e_RPAREN_'
p3071
(lp3072
g14
asS'ACOAD8f'
p3073
(lp3074
S'SCO1690'
p3075
aS'SCO2774'
p3076
aS'SCO6787'
p3077
asS'ARGTRS'
p3078
(lp3079
S'SCO3304'
p3080
aS'SCO5352'
p3081
asS'EX_ferrioxamB_LPAREN_e_RPAREN_'
p3082
(lp3083
g14
asS'EX_gmp_LPAREN_e_RPAREN_'
p3084
(lp3085
g14
asS'MNLD'
p3086
(lp3087
g14
asS'GLUSx'
p3088
(lp3089
S'SCO1977'
p3090
a(lp3091
S'SCO2025'
p3092
aS'SCO2026'
p3093
aasS'EX_xan_LPAREN_e_RPAREN_'
p3094
(lp3095
g14
asS'MTHFR2'
p3096
(lp3097
S'SCO2103'
p3098
asS'EX_cytd_LPAREN_e_RPAREN_'
p3099
(lp3100
g14
asS'EX_rib_DASH_D_LPAREN_e_RPAREN_'
p3101
(lp3102
g14
asS'ABUTD'
p3103
(lp3104
S'SCO5657'
p3105
aS'SCO5666'
p3106
asS'ICL'
p3107
(lp3108
S'SCO0982'
p3109
asS'DGK1'
p3110
(lp3111
S'SCO1479'
p3112
asS'EX_gsn_LPAREN_e_RPAREN_'
p3113
(lp3114
g14
asS'ACS2'
p3115
(lp3116
S'SCO3563'
p3117
asS'3OARi130'
p3118
(lp3119
S'SCO1815'
p3120
aS'SCO1345'
p3121
aS'SCO1346'
p3122
aS'SCO4501'
p3123
aS'SCO1831'
p3124
aS'SCO4681'
p3125
aS'SCO0330'
p3126
asS'EX_acald_LPAREN_e_RPAREN_'
p3127
(lp3128
g14
asS'EX_cys_DASH_L_LPAREN_e_RPAREN_'
p3129
(lp3130
g14
asS'TECA3S'
p3131
(lp3132
g14
asS'TAGS141'
p3133
(lp3134
g14
asS'TAGS140'
p3135
(lp3136
g14
asS'PFK'
p3137
(lp3138
S'SCO5426'
p3139
aS'SCO2119'
p3140
aS'SCO1214'
p3141
asS'THRt2'
p3142
(lp3143
S'SCO4374'
p3144
aS'SCO3362'
p3145
asS'CLPNS170'
p3146
(lp3147
S'SCO7081'
p3148
asS'ORNTAC'
p3149
(lp3150
S'SCO1579'
p3151
asS'OCBTi'
p3152
(lp3153
S'SCO5976'
p3154
asS'EX_ile_DASH_L_LPAREN_e_RPAREN_'
p3155
(lp3156
g14
asS'H2St1'
p3157
(lp3158
S's0001'
p3159
asS'EX_tartr_DASH_D_LPAREN_e_RPAREN_'
p3160
(lp3161
g14
asS'3OAS90'
p3162
(lp3163
S'SCO0548'
p3164
aS'SCO2390'
p3165
aS'SCO1266'
p3166
asS'3OASai130'
p3167
(lp3168
S'SCO0548'
p3169
aS'SCO2390'
p3170
aS'SCO1266'
p3171
asS'TYRTRS'
p3172
(lp3173
S'SCO1818'
p3174
asS'3OASai90'
p3175
(lp3176
S'SCO0548'
p3177
aS'SCO2390'
p3178
aS'SCO1266'
p3179
asS'DASYNi150'
p3180
(lp3181
S'SCO5628'
p3182
asS'PSSA150'
p3183
(lp3184
S'SCO6467'
p3185
asS'FORCT'
p3186
(lp3187
S'SCO6583'
p3188
asS'ATPM'
p3189
(lp3190
g14
asS'GALCTNt2'
p3191
(lp3192
S'SCO0313'
p3193
asS'APH140'
p3194
(lp3195
S'SCO5576'
p3196
asS'APH141'
p3197
(lp3198
S'SCO5576'
p3199
asS'CYSabc'
p3200
(lp3201
S'SCO3947'
p3202
asS'FACOAE141'
p3203
(lp3204
S'SCO1153'
p3205
aS'SCO2773'
p3206
asS'FACOAE140'
p3207
(lp3208
S'SCO1153'
p3209
aS'SCO2773'
p3210
asS'GLCRAL'
p3211
(lp3212
g14
asS'NNDMBRT'
p3213
(lp3214
S'SCO1554'
p3215
aS'SCO2175'
p3216
asS'PRDX'
p3217
(lp3218
S'SCO0560'
p3219
asS'AHC'
p3220
(lp3221
S'SCO3023'
p3222
asS'PUTA3'
p3223
(lp3224
S'SCO5520'
p3225
asS'TAGSi150'
p3226
(lp3227
g14
asS'EX_etoh_LPAREN_e_RPAREN_'
p3228
(lp3229
g14
asS'EX_melt_LPAREN_e_RPAREN_'
p3230
(lp3231
g14
asS'EX_ser_DASH_L_LPAREN_e_RPAREN_'
p3232
(lp3233
g14
asS'OXPTNDH'
p3234
(lp3235
g14
asS'GLCS1'
p3236
(lp3237
S'SCO0962'
p3238
asS'DASYN170'
p3239
(lp3240
S'SCO5628'
p3241
asS'PINOS150'
p3242
(lp3243
S'SCO1527'
p3244
asS'EX_dad_DASH_2_LPAREN_e_RPAREN_'
p3245
(lp3246
g14
asS'3HADi100'
p3247
(lp3248
g14
asS'GTPDPK'
p3249
(lp3250
S'SCO1513'
p3251
aS'SCO5794'
p3252
asS'EX_ala_DASH_L_LPAREN_e_RPAREN_'
p3253
(lp3254
g14
asS'HBADAS'
p3255
(lp3256
S'SCO1852'
p3257
asS'UGLT'
p3258
(lp3259
S'SCO3138'
p3260
asS'THCHDH'
p3261
(lp3262
S'SCO6975'
p3263
asS'3OAR121'
p3264
(lp3265
S'SCO1815'
p3266
aS'SCO1345'
p3267
aS'SCO1346'
p3268
aS'SCO4501'
p3269
aS'SCO1831'
p3270
aS'SCO4681'
p3271
aS'SCO0330'
p3272
asS'3OAR120'
p3273
(lp3274
S'SCO1815'
p3275
aS'SCO1345'
p3276
aS'SCO1346'
p3277
aS'SCO4501'
p3278
aS'SCO1831'
p3279
aS'SCO4681'
p3280
aS'SCO0330'
p3281
asS'EX_fe2_LPAREN_e_RPAREN_'
p3282
(lp3283
g14
asS'ADNUC'
p3284
(lp3285
S'SCO3779'
p3286
asS'UAG2E'
p3287
(lp3288
g14
asS'EARai130y'
p3289
(lp3290
S'SCO1814'
p3291
asS'EARai130x'
p3292
(lp3293
S'SCO1814'
p3294
asS'ACHBS'
p3295
(lp3296
(lp3297
S'SCO5512'
p3298
aS'SCO5513'
p3299
aaS'SCO2769'
p3300
asS'CHTBSabc'
p3301
(lp3302
(lp3303
S'SCO4240'
p3304
aS'SCO5232'
p3305
aS'SCO5233'
p3306
aS'SCO5234'
p3307
aa(lp3308
S'SCO4240'
p3309
aS'SCO6005'
p3310
aS'SCO6006'
p3311
aS'SCO6007'
p3312
aasS'PSDi170'
p3313
(lp3314
S'SCO6468'
p3315
asS'CU1O'
p3316
(lp3317
(lp3318
S'SCO3439'
p3319
aS'SCO3440'
p3320
aS'SCO6712'
p3321
aasS'DHAK'
p3322
(lp3323
S'SCO0580'
p3324
asS'EAR160x'
p3325
(lp3326
S'SCO1814'
p3327
asS'EAR160y'
p3328
(lp3329
S'SCO1814'
p3330
asS'EX_drib_LPAREN_e_RPAREN_'
p3331
(lp3332
g14
asS'EX_indole_LPAREN_e_RPAREN_'
p3333
(lp3334
g14
asS'PPK2r'
p3335
(lp3336
S'SCO4145'
p3337
asS'ABTA'
p3338
(lp3339
S'SCO5676'
p3340
aS'SCO7034'
p3341
asS'Kabc'
p3342
(lp3343
(lp3344
S'SCO3716'
p3345
aS'SCO3717'
p3346
aS'SCO3718'
p3347
aasS'OXOAEL'
p3348
(lp3349
S'SCO6339'
p3350
aS'SCO6697'
p3351
asS'PPRDNDH'
p3352
(lp3353
g14
asS'Kt2'
p3354
(lp3355
S'SCO3826'
p3356
asS'Kt3'
p3357
(lp3358
S'SCO1962'
p3359
asS'3OASi160'
p3360
(lp3361
S'SCO0548'
p3362
aS'SCO2390'
p3363
aS'SCO1266'
p3364
asS'PC20M'
p3365
(lp3366
S'SCO1853'
p3367
asS'GALt4'
p3368
(lp3369
S'SCO3139'
p3370
asS'EX_lcts_LPAREN_e_RPAREN_'
p3371
(lp3372
g14
asS'HMBS'
p3373
(lp3374
S'SCO7343'
p3375
aS'SCO3318'
p3376
asS'GTPCI'
p3377
(lp3378
S'SCO3403'
p3379
asS'EX_h2o2_LPAREN_e_RPAREN_'
p3380
(lp3381
g14
asS'MLTG3e'
p3382
(lp3383
S'SCO7019'
p3384
aS'SCO7020'
p3385
asS'TRPO2'
p3386
(lp3387
S'SCO3646'
p3388
asS'FE2t2'
p3389
(lp3390
S'SCO4993'
p3391
asS'PINOSi170'
p3392
(lp3393
S'SCO1527'
p3394
asS'SADT2'
p3395
(lp3396
(lp3397
S'SCO6097'
p3398
aS'SCO6098'
p3399
aasS'MANt2'
p3400
(lp3401
g14
asS'CPC5MT'
p3402
(lp3403
S'SCO1857'
p3404
asS'EX_desferrioxamB_LPAREN_e_RPAREN_'
p3405
(lp3406
g14
asS'ADNt2r'
p3407
(lp3408
g14
asS'UDCPDP'
p3409
(lp3410
S'SCO1326'
p3411
aS'SCO7047'
p3412
asS'NTP10'
p3413
(lp3414
S'SCO6149'
p3415
asS'DHAD1'
p3416
(lp3417
S'SCO1176'
p3418
aS'SCO1888'
p3419
aS'SCO3345'
p3420
asS'DHAD2'
p3421
(lp3422
S'SCO1176'
p3423
aS'SCO1888'
p3424
aS'SCO3345'
p3425
asS'ADPT'
p3426
(lp3427
S'SCO1514'
p3428
asS'NI2t'
p3429
(lp3430
S'SCO1667'
p3431
aS'SCO5157'
p3432
asS'HACD7'
p3433
(lp3434
S'SCO6732'
p3435
asS'TAGSai170'
p3436
(lp3437
g14
asS'HACD6'
p3438
(lp3439
S'SCO6732'
p3440
asS'3OAS180'
p3441
(lp3442
S'SCO0548'
p3443
aS'SCO2390'
p3444
aS'SCO1266'
p3445
asS'3OAS181'
p3446
(lp3447
S'SCO0548'
p3448
aS'SCO2390'
p3449
aS'SCO1266'
p3450
asS'THFAT'
p3451
(lp3452
S'SCO4837'
p3453
aS'SCO5470'
p3454
aS'SCO5364'
p3455
asS'CAT'
p3456
(lp3457
S'SCO0379'
p3458
aS'SCO0560'
p3459
a(lp3460
S'SCO0666'
p3461
aS'SCO2529'
p3462
aaS'SCO6204'
p3463
aS'SCO7590'
p3464
asS'HEX1'
p3465
(lp3466
S'SCO2126'
p3467
aS'SCO6260'
p3468
aS'SCO1077'
p3469
a(lp3470
S'SCO4145'
p3471
aS'SCO5059'
p3472
aasS'HEX4'
p3473
(lp3474
g14
asS'HEX7'
p3475
(lp3476
S'SCO1957'
p3477
asS'PPNDH'
p3478
(lp3479
S'SCO3962'
p3480
asS'CLPNSai170'
p3481
(lp3482
S'SCO7081'
p3483
asS'PGM'
p3484
(lp3485
S'SCO2576'
p3486
aS'SCO4209'
p3487
aS'SCO6818'
p3488
asS'PGK'
p3489
(lp3490
S'SCO1946'
p3491
asS'PGI'
p3492
(lp3493
S'SCO1942'
p3494
aS'SCO6659'
p3495
asS'FACOAL140'
p3496
(lp3497
S'SCO6196'
p3498
aS'SCO6195'
p3499
aS'SCO2131'
p3500
aS'SCO2444'
p3501
aS'SCO2561'
p3502
aS'SCO2720'
p3503
aS'SCO3436'
p3504
aS'SCO4006'
p3505
aS'SCO5983'
p3506
aS'SCO6552'
p3507
aS'SCO6968'
p3508
aS'SCO7244'
p3509
asS'FACOAL141'
p3510
(lp3511
S'SCO6196'
p3512
aS'SCO6195'
p3513
aS'SCO2131'
p3514
aS'SCO2444'
p3515
aS'SCO2561'
p3516
aS'SCO2720'
p3517
aS'SCO3436'
p3518
aS'SCO4006'
p3519
aS'SCO5983'
p3520
aS'SCO6552'
p3521
aS'SCO6968'
p3522
aS'SCO7244'
p3523
asS'3NTD9e'
p3524
(lp3525
S'SCO2015'
p3526
asS'ASPTRS'
p3527
(lp3528
S'SCO3795'
p3529
asS'ASPabc'
p3530
(lp3531
(lp3532
S'SCO5774'
p3533
aS'SCO5775'
p3534
aS'SCO5776'
p3535
aS'SCO5777'
p3536
aasS'S2FE2SR'
p3537
(lp3538
(lp3539
S'SCO1921'
p3540
aS'SCO1922'
p3541
aS'SCO1924'
p3542
aS'SCO1925'
p3543
aasS'S2FE2SS'
p3544
(lp3545
(lp3546
S'SCO1921'
p3547
aS'SCO1922'
p3548
aS'SCO1924'
p3549
aS'SCO1925'
p3550
aasS'S2FE2ST'
p3551
(lp3552
(lp3553
S'SCO1922'
p3554
aS'SCO1924'
p3555
aS'SCO1925'
p3556
aasS'5DGLCNt2r'
p3557
(lp3558
S'SCO1680'
p3559
aS'SCO4991'
p3560
asS'ACPpdsredQ'
p3561
(lp3562
S'SCO0046'
p3563
asS'ACPpdsredN'
p3564
(lp3565
S'SCO0046'
p3566
asS'DM_DALUA'
p3567
(lp3568
g14
asS'ACPpdsredL'
p3569
(lp3570
S'SCO0046'
p3571
asS'ACPPAT120'
p3572
(lp3573
g14
asS'EX_epm_LPAREN_e_RPAREN_'
p3574
(lp3575
g14
asS'EX_g3pc_LPAREN_e_RPAREN_'
p3576
(lp3577
g14
asS'OHPBAT'
p3578
(lp3579
S'SCO4366'
p3580
asS'23PDE9e'
p3581
(lp3582
S'SCO2015'
p3583
asS'PAPA180'
p3584
(lp3585
g14
asS'PAPA181'
p3586
(lp3587
g14
asS'PRATPP'
p3588
(lp3589
S'SCO1439'
p3590
asS'FUTALH'
p3591
(lp3592
S'SCO4327'
p3593
asS'GLYCAt2r'
p3594
(lp3595
S'SCO2541'
p3596
asS'3OARi120'
p3597
(lp3598
S'SCO1815'
p3599
aS'SCO1345'
p3600
aS'SCO1346'
p3601
aS'SCO4501'
p3602
aS'SCO1831'
p3603
aS'SCO4681'
p3604
aS'SCO0330'
p3605
asS'BMOGDS1'
p3606
(lp3607
S'SCO3828'
p3608
asS'PAPSR'
p3609
(lp3610
(lp3611
S'SCO0885'
p3612
aS'SCO6100'
p3613
aaS'SCO3889'
p3614
aS'SCO5419'
p3615
aS'SCO5438'
p3616
asS'5DOAN'
p3617
(lp3618
g14
asS'BMOGDS2'
p3619
(lp3620
S'SCO3828'
p3621
asS'TAGS150'
p3622
(lp3623
g14
asS'PRAIS'
p3624
(lp3625
S'SCO4087'
p3626
asS'ILEabc'
p3627
(lp3628
(lp3629
S'SCO0706'
p3630
aS'SCO0707'
p3631
aS'SCO0708'
p3632
aS'SCO0709'
p3633
aS'SCO0710'
p3634
aa(lp3635
S'SCO2008'
p3636
aS'SCO2009'
p3637
aS'SCO2010'
p3638
aS'SCO2011'
p3639
aS'SCO2012'
p3640
aa(lp3641
S'SCO7181'
p3642
aS'SCO7182'
p3643
aS'SCO7183'
p3644
aS'SCO7184'
p3645
aS'SCO7185'
p3646
aasS'MPTAT'
p3647
(lp3648
S'SCO3179'
p3649
asS'CLPNS161'
p3650
(lp3651
S'SCO7081'
p3652
asS'CLPNS160'
p3653
(lp3654
S'SCO7081'
p3655
asS'EARi110y'
p3656
(lp3657
S'SCO1814'
p3658
asS'EARi110x'
p3659
(lp3660
S'SCO1814'
p3661
asS'ACTt'
p3662
(lp3663
(lp3664
S'SCO5083'
p3665
aS'SCO5084'
p3666
aasS'3OARai170'
p3667
(lp3668
S'SCO1815'
p3669
aS'SCO1345'
p3670
aS'SCO1346'
p3671
aS'SCO4501'
p3672
aS'SCO1831'
p3673
aS'SCO4681'
p3674
aS'SCO0330'
p3675
asS'3OAS60'
p3676
(lp3677
S'SCO0548'
p3678
aS'SCO2390'
p3679
aS'SCO1266'
p3680
asS'EX_alaala_LPAREN_e_RPAREN_'
p3681
(lp3682
g14
asS'EX_ferrioxamE_LPAREN_e_RPAREN_'
p3683
(lp3684
g14
asS'PSSA161'
p3685
(lp3686
S'SCO6467'
p3687
asS'PSSA160'
p3688
(lp3689
S'SCO6467'
p3690
asS'EX_3cmp_LPAREN_e_RPAREN_'
p3691
(lp3692
g14
asS'PYK'
p3693
(lp3694
S'SCO2014'
p3695
aS'SCO5423'
p3696
asS'ARBabc'
p3697
(lp3698
(lp3699
S'SCO6567'
p3700
aS'SCO6568'
p3701
aS'SCO6569'
p3702
aasS'CU2t'
p3703
(lp3704
g14
asS'APH150'
p3705
(lp3706
S'SCO5576'
p3707
asS'PYAM5PO'
p3708
(lp3709
S'SCO4387'
p3710
aS'SCO4418'
p3711
asS'TAGSi140'
p3712
(lp3713
g14
asS'ACOADH1'
p3714
(lp3715
S'SCO2779'
p3716
asS'ILETA'
p3717
(lp3718
S'SCO1546'
p3719
aS'SCO5523'
p3720
asS'GLUTCOADHc'
p3721
(lp3722
S'SCO1750'
p3723
asS'NTPP9'
p3724
(lp3725
S'SCO2902'
p3726
asS'PINOS160'
p3727
(lp3728
S'SCO1527'
p3729
asS'PINOS161'
p3730
(lp3731
S'SCO1527'
p3732
asS'TAURabc'
p3733
(lp3734
(lp3735
S'SCO7544'
p3736
aS'SCO7545'
p3737
aS'SCO7546'
p3738
aasS'EX_h_LPAREN_e_RPAREN_'
p3739
(lp3740
g14
asS'EX_salcn_LPAREN_e_RPAREN_'
p3741
(lp3742
g14
asS'DASYN140'
p3743
(lp3744
S'SCO5628'
p3745
asS'DASYN141'
p3746
(lp3747
S'SCO5628'
p3748
asS'HACD1'
p3749
(lp3750
S'SCO6732'
p3751
asS'AOXSr2'
p3752
(lp3753
S'SCO1243'
p3754
aS'SCO5890'
p3755
asS'HACD3'
p3756
(lp3757
S'SCO6732'
p3758
asS'HACD2'
p3759
(lp3760
S'SCO6732'
p3761
asS'HACD5'
p3762
(lp3763
S'SCO6732'
p3764
asS'HACD4'
p3765
(lp3766
S'SCO6732'
p3767
asS'PCPpdsredO'
p3768
(lp3769
S'SCO0046'
p3770
asS'3HADi110'
p3771
(lp3772
g14
asS'HACD9'
p3773
(lp3774
S'SCO6732'
p3775
asS'HACD8'
p3776
(lp3777
S'SCO6732'
p3778
asS'AMALT4'
p3779
(lp3780
S'SCO2649'
p3781
asS'AMALT3'
p3782
(lp3783
S'SCO2649'
p3784
asS'AMALT2'
p3785
(lp3786
S'SCO2649'
p3787
asS'AMALT1'
p3788
(lp3789
S'SCO2649'
p3790
asS'NTPP1'
p3791
(lp3792
S'SCO3100'
p3793
asS'CHLt2'
p3794
(lp3795
S'SCO6739'
p3796
asS'AIRCr'
p3797
(lp3798
(lp3799
S'SCO3059'
p3800
aS'SCO3060'
p3801
aasS'CLPNSII150'
p3802
(lp3803
S'SCO1389'
p3804
asS'ADSS'
p3805
(lp3806
S'SCO3629'
p3807
asS'3OAR130'
p3808
(lp3809
S'SCO1815'
p3810
aS'SCO1345'
p3811
aS'SCO1346'
p3812
aS'SCO4501'
p3813
aS'SCO1831'
p3814
aS'SCO4681'
p3815
aS'SCO0330'
p3816
asS'SHSL1'
p3817
(lp3818
S'SCO1294'
p3819
aS'SCO4958'
p3820
asS'SHSL2'
p3821
(lp3822
S'SCO1294'
p3823
aS'SCO4958'
p3824
asS'SHSL4'
p3825
(lp3826
S'SCO1294'
p3827
aS'SCO4958'
p3828
asS'EX_glu_DASH_L_LPAREN_e_RPAREN_'
p3829
(lp3830
g14
asS'ADSK'
p3831
(lp3832
S'SCO6099'
p3833
asS'PC3BS'
p3834
(lp3835
g14
asS'INS2D'
p3836
(lp3837
S'SCO6255'
p3838
aS'SCO6984'
p3839
aS'SCO7254'
p3840
asS'ALATA_L'
p3841
(lp3842
S'SCO4984'
p3843
aS'SCO6222'
p3844
asS'MALt2_2'
p3845
(lp3846
S'SCO5436'
p3847
asS'SERTRS'
p3848
(lp3849
S'SCO3961'
p3850
asS'EX_2ddglcn_LPAREN_e_RPAREN_'
p3851
(lp3852
g14
asS'CYTDt2r'
p3853
(lp3854
g14
asS'3HADai170'
p3855
(lp3856
g14
asS'PACCOAL'
p3857
(lp3858
S'SCO7469'
p3859
asS'PAPAi170'
p3860
(lp3861
g14
asS'MPTS'
p3862
(lp3863
S'SCO5201'
p3864
asS'DB4PS'
p3865
(lp3866
S'SCO1441'
p3867
asS'3OASi170'
p3868
(lp3869
S'SCO0548'
p3870
aS'SCO2390'
p3871
aS'SCO1266'
p3872
asS'PACCOAE'
p3873
(lp3874
(lp3875
S'SCO7471'
p3876
aS'SCO7472'
p3877
aS'SCO7473'
p3878
aS'SCO7474'
p3879
aS'SCO7475'
p3880
aasS'MPTG'
p3881
(lp3882
S'SCO3847'
p3883
a(lp3884
S'SCO2709'
p3885
aS'SCO5301'
p3886
aaS'SCO3894'
p3887
asS'GLYCK'
p3888
(lp3889
S'SCO2145'
p3890
aS'SCO6466'
p3891
asS'GLYCL'
p3892
(lp3893
(lp3894
S'SCO0884'
p3895
aS'SCO1378'
p3896
aS'SCO5471'
p3897
aS'SCO5472'
p3898
aaS'SCO2180'
p3899
aS'SCO4919'
p3900
asS'GSNt2'
p3901
(lp3902
g14
asS'HISTD'
p3903
(lp3904
S'SCO2054'
p3905
asS'ASP1DC'
p3906
(lp3907
(lp3908
S'SCO0978'
p3909
aS'SCO3416'
p3910
aasS'APG3PAT120'
p3911
(lp3912
g14
asS'XYLI1'
p3913
(lp3914
S'SCO1169'
p3915
asS'EX_g3ps_LPAREN_e_RPAREN_'
p3916
(lp3917
g14
asS'XYLI2'
p3918
(lp3919
S'SCO1169'
p3920
asS'THRTRS'
p3921
(lp3922
S'SCO1531'
p3923
aS'SCO3778'
p3924
asS'GLYCt'
p3925
(lp3926
S'SCO1659'
p3927
aS'SCO4057'
p3928
asS'SSALy'
p3929
(lp3930
S'SCO1204'
p3931
aS'SCO4780'
p3932
aS'SCO7035'
p3933
asS'ALAALAabc'
p3934
(lp3935
(lp3936
S'SCO5110'
p3937
aS'SCO5112'
p3938
aS'SCO5113'
p3939
aS'SCO5114'
p3940
aS'SCO5115'
p3941
aa(lp3942
S'SCO5117'
p3943
aS'SCO5118'
p3944
aS'SCO5119'
p3945
aS'SCO5120'
p3946
aS'SCO5121'
p3947
aa(lp3948
S'SCO5712'
p3949
aS'SCO5713'
p3950
aS'SCO5714'
p3951
aS'SCO5716'
p3952
aasS'EAR170y'
p3953
(lp3954
S'SCO1814'
p3955
asS'EAR170x'
p3956
(lp3957
S'SCO1814'
p3958
asS'PINOS180'
p3959
(lp3960
S'SCO1527'
p3961
asS'ACOAD8'
p3962
(lp3963
S'SCO2779'
p3964
asS'SERD_L'
p3965
(lp3966
S'SCO0821'
p3967
aS'SCO4962'
p3968
aS'SCO5469'
p3969
asS'ACBIPGT'
p3970
(lp3971
S'SCO2173'
p3972
asS'PINOSi160'
p3973
(lp3974
S'SCO1527'
p3975
asS'KARA2i'
p3976
(lp3977
S'SCO5514'
p3978
aS'SCO7154'
p3979
asS'ALATA_L2'
p3980
(lp3981
S'SCO1087'
p3982
aS'SCO4837'
p3983
aS'SCO5470'
p3984
aS'SCO5364'
p3985
asS'PPPGO'
p3986
(lp3987
S'SCO6041'
p3988
asS'ASNTRS'
p3989
(lp3990
g14
asS'EX_cd2_LPAREN_e_RPAREN_'
p3991
(lp3992
g14
asS'ACPpds'
p3993
(lp3994
S'SCO0046'
p3995
asS'HEMEOS'
p3996
(lp3997
S'SCO1934'
p3998
asS'PRASCSi'
p3999
(lp4000
S'SCO4071'
p4001
asS'GUAt'
p4002
(lp4003
g14
asS'RPE'
p4004
(lp4005
S'SCO1464'
p4006
asS'PHEt2r'
p4007
(lp4008
S'SCO2914'
p4009
asS'BETALDHx'
p4010
(lp4011
S'SCO4828'
p4012
asS'HISTP'
p4013
(lp4014
S'SCO5208'
p4015
asS'RPI'
p4016
(lp4017
S'SCO0579'
p4018
aS'SCO1224'
p4019
aS'SCO2627'
p4020
asS'PSDi150'
p4021
(lp4022
S'SCO6468'
p4023
asS'MCOATA'
p4024
(lp4025
(lp4026
S'SCO2387'
p4027
aS'SCO2389'
p4028
aaS'SCO0549'
p4029
aS'SCO1267'
p4030
aS'SCO1272'
p4031
asS'SUCD3'
p4032
(lp4033
S'SCO4856'
p4034
aS'SCO5107'
p4035
a(lp4036
S'SCO4855'
p4037
aS'SCO7109'
p4038
aa(lp4039
S'SCO4857'
p4040
aS'SCO4858'
p4041
aS'SCO5106'
p4042
aasS'G3PD2'
p4043
(lp4044
S'SCO5559'
p4045
asS'RBK'
p4046
(lp4047
S'SCO2748'
p4048
asS'G3PD6'
p4049
(lp4050
S'SCO0670'
p4051
aS'SCO1661'
p4052
aS'SCO4774'
p4053
a(lp4054
S'SCO7005'
p4055
aS'SCO7006'
p4056
aasS'EX_btn_LPAREN_e_RPAREN_'
p4057
(lp4058
g14
asS'SKMt2'
p4059
(lp4060
S'SCO1010'
p4061
asS'THYMt3r'
p4062
(lp4063
g14
asS'ZN2t3'
p4064
(lp4065
S'SCO0776'
p4066
aS'SCO1310'
p4067
aS'SCO2772'
p4068
aS'SCO6751'
p4069
asS'RMPA'
p4070
(lp4071
g14
asS'GLXCL'
p4072
(lp4073
S'SCO6201'
p4074
asS'EX_ca2_LPAREN_e_RPAREN_'
p4075
(lp4076
g14
asS'PYDXNK'
p4077
(lp4078
g14
asS'DNADDP'
p4079
(lp4080
S'SCO5186'
p4081
asS'MLTG4e'
p4082
(lp4083
S'SCO7019'
p4084
aS'SCO7020'
p4085
asS'LYXI'
p4086
(lp4087
S'SCO0812'
p4088
asS'EX_thr_DASH_L_LPAREN_e_RPAREN_'
p4089
(lp4090
g14
asS'EARai90y'
p4091
(lp4092
S'SCO1814'
p4093
asS'EARai90x'
p4094
(lp4095
S'SCO1814'
p4096
asS'DDGK'
p4097
(lp4098
S'SCO6978'
p4099
asS'EX_glyald_LPAREN_e_RPAREN_'
p4100
(lp4101
g14
asS'NAMNPP'
p4102
(lp4103
S'SCO0171'
p4104
aS'SCO2917'
p4105
asS'BWCOGDS2'
p4106
(lp4107
S'SCO3828'
p4108
asS'BWCOGDS1'
p4109
(lp4110
S'SCO3828'
p4111
asS'EX_xtsn_LPAREN_e_RPAREN_'
p4112
(lp4113
g14
asS'THRabc'
p4114
(lp4115
(lp4116
S'SCO0706'
p4117
aS'SCO0707'
p4118
aS'SCO0708'
p4119
aS'SCO0709'
p4120
aS'SCO0710'
p4121
aa(lp4122
S'SCO2008'
p4123
aS'SCO2009'
p4124
aS'SCO2010'
p4125
aS'SCO2011'
p4126
aS'SCO2012'
p4127
aa(lp4128
S'SCO7181'
p4129
aS'SCO7182'
p4130
aS'SCO7183'
p4131
aS'SCO7184'
p4132
aS'SCO7185'
p4133
aasS'EX_lac_DASH_D_LPAREN_e_RPAREN_'
p4134
(lp4135
g14
asS'ACOTA'
p4136
(lp4137
S'SCO1577'
p4138
asS'ALCD2x'
p4139
(lp4140
S'SCO0199'
p4141
aS'SCO0259'
p4142
aS'SCO5262'
p4143
aS'SCO7362'
p4144
asS'PCADYOX'
p4145
(lp4146
(lp4147
S'SCO6699'
p4148
aS'SCO6700'
p4149
aasS'UAPGR'
p4150
(lp4151
S'SCO4643'
p4152
asS'SPMDabc'
p4153
(lp4154
(lp4155
S'SCO5658'
p4156
aS'SCO5667'
p4157
aS'SCO5668'
p4158
aS'SCO5669'
p4159
aS'SCO5670'
p4160
aasS'PPAKr'
p4161
(lp4162
S'SCO5424'
p4163
asS'3OARi110'
p4164
(lp4165
S'SCO1815'
p4166
aS'SCO1345'
p4167
aS'SCO1346'
p4168
aS'SCO4501'
p4169
aS'SCO1831'
p4170
aS'SCO4681'
p4171
aS'SCO0330'
p4172
asS'EX_15dap_LPAREN_e_RPAREN_'
p4173
(lp4174
g14
asS'TECA1S'
p4175
(lp4176
g14
asS'PROt2r'
p4177
(lp4178
S'SCO1225'
p4179
aS'SCO2336'
p4180
aS'SCO7395'
p4181
asS'TAGS161'
p4182
(lp4183
g14
asS'TAGS160'
p4184
(lp4185
g14
asS'HEMEAS'
p4186
(lp4187
S'SCO1930'
p4188
asS'FOMETRi'
p4189
(lp4190
S'SCO3183'
p4191
asS'3OARi70'
p4192
(lp4193
S'SCO1815'
p4194
aS'SCO1345'
p4195
aS'SCO1346'
p4196
aS'SCO4501'
p4197
aS'SCO1831'
p4198
aS'SCO4681'
p4199
aS'SCO0330'
p4200
asS'DHQS'
p4201
(lp4202
S'SCO1494'
p4203
asS'MNLabc'
p4204
(lp4205
(lp4206
S'SCO1898'
p4207
aS'SCO1899'
p4208
aS'SCO1900'
p4209
aS'SCO4240'
p4210
aasS'ACGS'
p4211
(lp4212
S'SCO1579'
p4213
aS'SCO3376'
p4214
asS'TAGS181'
p4215
(lp4216
g14
asS'TAGS180'
p4217
(lp4218
g14
asS'3OASai110'
p4219
(lp4220
S'SCO0548'
p4221
aS'SCO2390'
p4222
aS'SCO1266'
p4223
asS'DM_AMOB'
p4224
(lp4225
g14
asS'GTHRDH'
p4226
(lp4227
S'SCO5945'
p4228
aS'SCO6407'
p4229
aS'SCO6444'
p4230
asS'ACGK'
p4231
(lp4232
S'SCO1578'
p4233
asS'CA2t4'
p4234
(lp4235
S'SCO1962'
p4236
asS'3OAS70'
p4237
(lp4238
S'SCO0548'
p4239
aS'SCO2390'
p4240
aS'SCO1266'
p4241
asS'TGBPA'
p4242
(lp4243
(lp4244
S'SCO5848'
p4245
aS'SCO5852'
p4246
aasS'HISD'
p4247
(lp4248
S'SCO4932'
p4249
asS'EX_cbl1_LPAREN_e_RPAREN_'
p4250
(lp4251
g14
asS'EARi100x'
p4252
(lp4253
S'SCO1814'
p4254
asS'DASYNi170'
p4255
(lp4256
S'SCO5628'
p4257
asS'UREA'
p4258
(lp4259
(lp4260
S'SCO1234'
p4261
aS'SCO1235'
p4262
aS'SCO1236'
p4263
aa(lp4264
S'SCO5525'
p4265
aS'SCO5526'
p4266
aasS'EAR70x'
p4267
(lp4268
S'SCO1814'
p4269
asS'PSSA170'
p4270
(lp4271
S'SCO6467'
p4272
asS'FACOAE161'
p4273
(lp4274
S'SCO1153'
p4275
aS'SCO2773'
p4276
asS'FACOAE160'
p4277
(lp4278
S'SCO1153'
p4279
aS'SCO2773'
p4280
asS'APH120'
p4281
(lp4282
S'SCO5576'
p4283
asS'APHi140'
p4284
(lp4285
S'SCO5576'
p4286
asS'GTPCIII2'
p4287
(lp4288
S'SCO6655'
p4289
asS'ALDD2x'
p4290
(lp4291
S'SCO1174'
p4292
aS'SCO1706'
p4293
aS'SCO3420'
p4294
aS'SCO4913'
p4295
aS'SCO5679'
p4296
asS'PINOS181'
p4297
(lp4298
S'SCO1527'
p4299
asS'GCALDD'
p4300
(lp4301
S'SCO3486'
p4302
asS'ZNabc'
p4303
(lp4304
(lp4305
S'SCO0473'
p4306
aS'SCO0475'
p4307
aS'SCO0476'
p4308
aa(lp4309
S'SCO2505'
p4310
aS'SCO2506'
p4311
aS'SCO2507'
p4312
aasS'EX_so4_LPAREN_e_RPAREN_'
p4313
(lp4314
g14
asS'ANS'
p4315
(lp4316
(lp4317
S'SCO3213'
p4318
aS'SCO3214'
p4319
aaS'SCO2043'
p4320
aS'SCO2117'
p4321
asS'NADK'
p4322
(lp4323
S'SCO1781'
p4324
asS'DASYN150'
p4325
(lp4326
S'SCO5628'
p4327
asS'PINOS170'
p4328
(lp4329
S'SCO1527'
p4330
asS'3HADi120'
p4331
(lp4332
g14
asS'TMK'
p4333
(lp4334
g14
asS'FESD1s'
p4335
(lp4336
S's0001'
p4337
asS'EX_pydx_LPAREN_e_RPAREN_'
p4338
(lp4339
g14
asS'LYSabc'
p4340
(lp4341
(lp4342
S'SCO2828'
p4343
aS'SCO2829'
p4344
aS'SCO2830'
p4345
aS'SCO2831'
p4346
aasS'3OARai70'
p4347
(lp4348
S'SCO1815'
p4349
aS'SCO1345'
p4350
aS'SCO1346'
p4351
aS'SCO4501'
p4352
aS'SCO1831'
p4353
aS'SCO4681'
p4354
aS'SCO0330'
p4355
asS'ETOHtr'
p4356
(lp4357
S's0001'
p4358
asS'TALA'
p4359
(lp4360
S'SCO1936'
p4361
aS'SCO6662'
p4362
asS'LFORKYNHYD'
p4363
(lp4364
S'SCO3645'
p4365
asS'HSST'
p4366
(lp4367
g14
asS'3OAR141'
p4368
(lp4369
S'SCO1815'
p4370
aS'SCO1345'
p4371
aS'SCO1346'
p4372
aS'SCO4501'
p4373
aS'SCO1831'
p4374
aS'SCO4681'
p4375
aS'SCO0330'
p4376
asS'3OAR140'
p4377
(lp4378
S'SCO1815'
p4379
aS'SCO1345'
p4380
aS'SCO1346'
p4381
aS'SCO4501'
p4382
aS'SCO1831'
p4383
aS'SCO4681'
p4384
aS'SCO0330'
p4385
asS'DXPRIi'
p4386
(lp4387
S'SCO5694'
p4388
asS'EX_galctn_DASH_D_LPAREN_e_RPAREN_'
p4389
(lp4390
g14
asS'MNt2'
p4391
(lp4392
S'SCO4993'
p4393
asS'PAPSR3'
p4394
(lp4395
S'SCO6100'
p4396
asS'FACOAE181'
p4397
(lp4398
S'SCO1153'
p4399
aS'SCO2773'
p4400
asS'FACOAE180'
p4401
(lp4402
S'SCO1153'
p4403
aS'SCO2773'
p4404
asS'PUNP6'
p4405
(lp4406
S'SCO4917'
p4407
asS'PUNP7'
p4408
(lp4409
S'SCO4917'
p4410
asS'PUNP1'
p4411
(lp4412
S'SCO4917'
p4413
asS'PUNP2'
p4414
(lp4415
S'SCO4917'
p4416
asS'AKGt2r'
p4417
(lp4418
S'SCO6690'
p4419
asS'EX_thym_LPAREN_e_RPAREN_'
p4420
(lp4421
g14
asS'ASPO1'
p4422
(lp4423
S'SCO3382'
p4424
asS'PMPK'
p4425
(lp4426
S'SCO5563'
p4427
asS'ASPO5'
p4428
(lp4429
S'SCO3382'
p4430
asS'ASPO6'
p4431
(lp4432
S'SCO3382'
p4433
asS'3OASi100'
p4434
(lp4435
S'SCO0548'
p4436
aS'SCO2390'
p4437
aS'SCO1266'
p4438
asS'CPMPS'
p4439
(lp4440
(lp4441
S'SCO1821'
p4442
aS'SCO3180'
p4443
aasS'EX_malthx_LPAREN_e_RPAREN_'
p4444
(lp4445
g14
asS'EX_na1_LPAREN_e_RPAREN_'
p4446
(lp4447
g14
asS'EX_gln_DASH_L_LPAREN_e_RPAREN_'
p4448
(lp4449
g14
asS'EX_mal_DASH_L_LPAREN_e_RPAREN_'
p4450
(lp4451
g14
asS'MYCTR'
p4452
(lp4453
g14
asS'CSNt2'
p4454
(lp4455
S'SCO0572'
p4456
asS'3OASi70'
p4457
(lp4458
S'SCO0548'
p4459
aS'SCO2390'
p4460
aS'SCO1266'
p4461
asS'MLTG5e'
p4462
(lp4463
S'SCO7019'
p4464
aS'SCO7020'
p4465
asS'GGLt2'
p4466
(lp4467
g14
asS'CLPNSII141'
p4468
(lp4469
S'SCO1389'
p4470
asS'CLPNSII140'
p4471
(lp4472
S'SCO1389'
p4473
asS'BGLU'
p4474
(lp4475
S'SCO0293'
p4476
aS'SCO0458'
p4477
aS'SCO1059'
p4478
aS'SCO2531'
p4479
aS'SCO2798'
p4480
aS'SCO5685'
p4481
aS'SCO6597'
p4482
aS'SCO6604'
p4483
aS'SCO7031'
p4484
aS'SCO7558'
p4485
asS'NADTRHD'
p4486
(lp4487
(lp4488
S'SCO7622'
p4489
aS'SCO7623'
p4490
aasS'IPPS'
p4491
(lp4492
S'SCO2528'
p4493
aS'SCO5529'
p4494
asS'LIPOt2'
p4495
(lp4496
g14
asS'ARGt3'
p4497
(lp4498
S'SCO7308'
p4499
asS'TAGSai150'
p4500
(lp4501
g14
asS'EX_ac_LPAREN_e_RPAREN_'
p4502
(lp4503
g14
asS'EX_thm_LPAREN_e_RPAREN_'
p4504
(lp4505
g14
asS'FORAMD'
p4506
(lp4507
g14
asS'PSDi140'
p4508
(lp4509
S'SCO6468'
p4510
asS'EAR100x'
p4511
(lp4512
S'SCO1814'
p4513
asS'EAR100y'
p4514
(lp4515
S'SCO1814'
p4516
asS'NTPTP2'
p4517
(lp4518
S'SCO2470'
p4519
asS'ACOAD9'
p4520
(lp4521
S'SCO2779'
p4522
asS'DHNAS'
p4523
(lp4524
S'SCO4326'
p4525
asS'SHCHD2'
p4526
(lp4527
S'SCO1553'
p4528
asS'PSD120'
p4529
(lp4530
S'SCO6468'
p4531
asS'ALALAC'
p4532
(lp4533
S'SCO3595'
p4534
asS'EX_val_DASH_L_LPAREN_e_RPAREN_'
p4535
(lp4536
g14
asS'PSERT'
p4537
(lp4538
S'SCO4366'
p4539
asS'CUt3'
p4540
(lp4541
g14
asS'DHNAI'
p4542
(lp4543
g14
asS'EX_dha_LPAREN_e_RPAREN_'
p4544
(lp4545
g14
asS'PAPAi180'
p4546
(lp4547
g14
asS'FACOAL160'
p4548
(lp4549
S'SCO6196'
p4550
aS'SCO6195'
p4551
aS'SCO2131'
p4552
aS'SCO2444'
p4553
aS'SCO2561'
p4554
aS'SCO2720'
p4555
aS'SCO3436'
p4556
aS'SCO4006'
p4557
aS'SCO5983'
p4558
aS'SCO6552'
p4559
aS'SCO6968'
p4560
aS'SCO7244'
p4561
asS'FACOAL161'
p4562
(lp4563
S'SCO6196'
p4564
aS'SCO6195'
p4565
aS'SCO2131'
p4566
aS'SCO2444'
p4567
aS'SCO2561'
p4568
aS'SCO2720'
p4569
aS'SCO3436'
p4570
aS'SCO4006'
p4571
aS'SCO5983'
p4572
aS'SCO6552'
p4573
aS'SCO6968'
p4574
aS'SCO7244'
p4575
asS'CLPNSai150'
p4576
(lp4577
S'SCO7081'
p4578
asS'14GLUCANabc'
p4579
(lp4580
(lp4581
S'SCO2229'
p4582
aS'SCO2230'
p4583
aS'SCO2231'
p4584
aS'SCO4240'
p4585
aasS'NNDPR'
p4586
(lp4587
S'SCO3381'
p4588
asS'SUCCt2_2'
p4589
(lp4590
S'SCO5436'
p4591
asS'PINOSi150'
p4592
(lp4593
S'SCO1527'
p4594
asS'3HADi170'
p4595
(lp4596
g14
asS'MACPD'
p4597
(lp4598
S'SCO0548'
p4599
asS'GALIt2'
p4600
(lp4601
g14
asS'BETALDHy'
p4602
(lp4603
S'SCO4828'
p4604
asS'EX_man_LPAREN_e_RPAREN_'
p4605
(lp4606
g14
asS'CPC6R'
p4607
(lp4608
S'SCO3283'
p4609
asS'4PCP'
p4610
(lp4611
S'SCO6489'
p4612
asS'GLGC'
p4613
(lp4614
S'SCO0961'
p4615
asS'TKT2'
p4616
(lp4617
S'SCO1935'
p4618
aS'SCO6497'
p4619
aS'SCO6663'
p4620
asS'TKT1'
p4621
(lp4622
S'SCO1935'
p4623
aS'SCO6497'
p4624
aS'SCO6663'
p4625
asS'GLCATr'
p4626
(lp4627
S'SCO7519'
p4628
asS'EX_no3_LPAREN_e_RPAREN_'
p4629
(lp4630
g14
asS'3OARi100'
p4631
(lp4632
S'SCO1815'
p4633
aS'SCO1345'
p4634
aS'SCO1346'
p4635
aS'SCO4501'
p4636
aS'SCO1831'
p4637
aS'SCO4681'
p4638
aS'SCO0330'
p4639
asS'ADK2i'
p4640
(lp4641
S'SCO4723'
p4642
asS'DASYNai150'
p4643
(lp4644
S'SCO5628'
p4645
asS'ACM6PH'
p4646
(lp4647
S'SCO4307'
p4648
asS'TAGS170'
p4649
(lp4650
g14
asS'PMDPHT'
p4651
(lp4652
g14
asS'RNDR4'
p4653
(lp4654
(lp4655
S'SCO5225'
p4656
aS'SCO5226'
p4657
aa(lp4658
S'SCO0885'
p4659
aS'SCO5805'
p4660
aaS'SCO3889'
p4661
aS'SCO5419'
p4662
aS'SCO5438'
p4663
asS'RNDR3'
p4664
(lp4665
(lp4666
S'SCO5225'
p4667
aS'SCO5226'
p4668
aa(lp4669
S'SCO0885'
p4670
aS'SCO5805'
p4671
aaS'SCO3889'
p4672
aS'SCO5419'
p4673
aS'SCO5438'
p4674
asS'GLU5K'
p4675
(lp4676
S'SCO2587'
p4677
asS'GDPTPDP'
p4678
(lp4679
S'SCO1513'
p4680
aS'SCO5794'
p4681
asS'GLYCK2'
p4682
(lp4683
S'SCO2145'
p4684
aS'SCO6466'
p4685
asS'G6PDA'
p4686
(lp4687
S'SCO5236'
p4688
asS'MPTG2'
p4689
(lp4690
S'SCO3847'
p4691
a(lp4692
S'SCO2709'
p4693
aS'SCO5301'
p4694
aaS'SCO3894'
p4695
asS'CLPNSi170'
p4696
(lp4697
S'SCO7081'
p4698
asS'GUAt2'
p4699
(lp4700
S'SCO6212'
p4701
aS'SCO6214'
p4702
asS'MLTG5'
p4703
(lp4704
S'SCO1394'
p4705
aS'SCO2228'
p4706
aS'SCO3780'
p4707
aS'SCO7010'
p4708
asS'MLTG4'
p4709
(lp4710
S'SCO1394'
p4711
aS'SCO2228'
p4712
aS'SCO3780'
p4713
aS'SCO7010'
p4714
asS'3HADi90'
p4715
(lp4716
g14
asS'3HAD80'
p4717
(lp4718
g14
asS'MLTG3'
p4719
(lp4720
S'SCO1394'
p4721
aS'SCO2228'
p4722
aS'SCO3780'
p4723
aS'SCO7010'
p4724
asS'MLTG2'
p4725
(lp4726
S'SCO1394'
p4727
aS'SCO2228'
p4728
aS'SCO3780'
p4729
aS'SCO7010'
p4730
asS'EX_glyb_LPAREN_e_RPAREN_'
p4731
(lp4732
g14
asS'HXAND'
p4733
(lp4734
(lp4735
S'SCO4971'
p4736
aS'SCO4972'
p4737
aa(lp4738
S'SCO0689'
p4739
aS'SCO0690'
p4740
aS'SCO0691'
p4741
aa(lp4742
S'SCO1132'
p4743
aS'SCO1133'
p4744
aS'SCO1134'
p4745
aasS'EX_celb_LPAREN_e_RPAREN_'
p4746
(lp4747
g14
asS'DASYNi160'
p4748
(lp4749
S'SCO5628'
p4750
asS'DTMPK'
p4751
(lp4752
g14
asS'LDH_D'
p4753
(lp4754
S'SCO2118'
p4755
aS'SCO3594'
p4756
asS'CU1abc'
p4757
(lp4758
S'SCO1046'
p4759
aS'SCO2731'
p4760
asS'OMCDC'
p4761
(lp4762
S's0001'
p4763
asS'APHi170'
p4764
(lp4765
S'SCO5576'
p4766
asS'ACS'
p4767
(lp4768
S'SCO3563'
p4769
asS'ME1'
p4770
(lp4771
S'SCO2951'
p4772
asS'METOX2s'
p4773
(lp4774
S's0001'
p4775
asS'ME2'
p4776
(lp4777
S'SCO5261'
p4778
asS'PCPSredO'
p4779
(lp4780
S'SCO5883'
p4781
asS'EX_etha_LPAREN_e_RPAREN_'
p4782
(lp4783
g14
asS'EX_idon_DASH_L_LPAREN_e_RPAREN_'
p4784
(lp4785
g14
asS'EX_gua_LPAREN_e_RPAREN_'
p4786
(lp4787
g14
asS'EX_melib_LPAREN_e_RPAREN_'
p4788
(lp4789
g14
asS'PYDXPS'
p4790
(lp4791
(lp4792
S'SCO1522'
p4793
aS'SCO1523'
p4794
aasS'GGLGH'
p4795
(lp4796
S'SCO0274'
p4797
aS'SCO0541'
p4798
asS'EAR60x'
p4799
(lp4800
S'SCO1814'
p4801
asS'EAR60y'
p4802
(lp4803
S'SCO1814'
p4804
asS'GPDDA2e'
p4805
(lp4806
S'SCO1565'
p4807
aS'SCO1968'
p4808
aS'SCO7550'
p4809
asS'DASYN120'
p4810
(lp4811
S'SCO5628'
p4812
asS'NI2t3'
p4813
(lp4814
S'SCO0776'
p4815
aS'SCO1310'
p4816
aS'SCO2772'
p4817
aS'SCO6751'
p4818
asS'3HADi130'
p4819
(lp4820
g14
asS'MTHFD'
p4821
(lp4822
S'SCO4824'
p4823
asS'TRPS2'
p4824
(lp4825
(lp4826
S'SCO2036'
p4827
aS'SCO2037'
p4828
aasS'TRPS3'
p4829
(lp4830
(lp4831
S'SCO2036'
p4832
aS'SCO2037'
p4833
aasS'TRPS1'
p4834
(lp4835
(lp4836
S'SCO2036'
p4837
aS'SCO2037'
p4838
aasS'EPMGH'
p4839
(lp4840
S'SCO0274'
p4841
aS'SCO0541'
p4842
asS'DCTPD2'
p4843
(lp4844
S'SCO3678'
p4845
asS'EX_3ump_LPAREN_e_RPAREN_'
p4846
(lp4847
g14
asS'3HAD60'
p4848
(lp4849
g14
asS'OMPDC'
p4850
(lp4851
S'SCO1481'
p4852
asS'MOGDS'
p4853
(lp4854
S'SCO3828'
p4855
asS'3OAR150'
p4856
(lp4857
S'SCO1815'
p4858
aS'SCO1345'
p4859
aS'SCO1346'
p4860
aS'SCO4501'
p4861
aS'SCO1831'
p4862
aS'SCO4681'
p4863
aS'SCO0330'
p4864
asS'GK2i'
p4865
(lp4866
S'SCO1479'
p4867
asS'XANt2'
p4868
(lp4869
S'SCO6212'
p4870
aS'SCO6214'
p4871
asS'VALabc'
p4872
(lp4873
(lp4874
S'SCO0706'
p4875
aS'SCO0707'
p4876
aS'SCO0708'
p4877
aS'SCO0709'
p4878
aS'SCO0710'
p4879
aa(lp4880
S'SCO2008'
p4881
aS'SCO2009'
p4882
aS'SCO2010'
p4883
aS'SCO2011'
p4884
aS'SCO2012'
p4885
aa(lp4886
S'SCO7181'
p4887
aS'SCO7182'
p4888
aS'SCO7183'
p4889
aS'SCO7184'
p4890
aS'SCO7185'
p4891
aasS'EX_mn2_LPAREN_e_RPAREN_'
p4892
(lp4893
g14
asS'NADDP'
p4894
(lp4895
S'SCO5186'
p4896
asS'GGTT'
p4897
(lp4898
S'SCO4583'
p4899
asS'AOBUTDs'
p4900
(lp4901
S's0001'
p4902
asS'EX_dgmp_LPAREN_e_RPAREN_'
p4903
(lp4904
g14
asS'EAR181y'
p4905
(lp4906
S'SCO1814'
p4907
asS'3HADai150'
p4908
(lp4909
g14
asS'BHBt'
p4910
(lp4911
g14
asS'GND2'
p4912
(lp4913
S'SCO0975'
p4914
aS'SCO3877'
p4915
aS'SCO6658'
p4916
asS'ADCL'
p4917
(lp4918
g14
asS'3OASi110'
p4919
(lp4920
S'SCO0548'
p4921
aS'SCO2390'
p4922
aS'SCO1266'
p4923
asS'DPCOAK'
p4924
(lp4925
S'SCO1996'
p4926
asS'HSDy'
p4927
(lp4928
S'SCO0420'
p4929
aS'SCO5354'
p4930
asS'ADCS'
p4931
(lp4932
S'SCO3851'
p4933
asS'EX_lyx_DASH_L_LPAREN_e_RPAREN_'
p4934
(lp4935
g14
asS'EX_co2_LPAREN_e_RPAREN_'
p4936
(lp4937
g14
asS'GLYAT'
p4938
(lp4939
S'SCO6800'
p4940
asS'EX_26dap_DASH_M_LPAREN_e_RPAREN_'
p4941
(lp4942
g14
asS'EX_malt_LPAREN_e_RPAREN_'
p4943
(lp4944
g14
asS'3OASi60'
p4945
(lp4946
S'SCO0548'
p4947
aS'SCO2390'
p4948
aS'SCO1266'
p4949
asS'TYRt2r'
p4950
(lp4951
S'SCO2914'
p4952
asS'FRTT'
p4953
(lp4954
S'SCO0185'
p4955
aS'SCO0565'
p4956
aS'SCO5250'
p4957
aS'SCO6763'
p4958
asS'ASPt2'
p4959
(lp4960
S'SCO4498'
p4961
asS'EX_g3pi_LPAREN_e_RPAREN_'
p4962
(lp4963
g14
asS'UAMAGS'
p4964
(lp4965
S'SCO2086'
p4966
asS'EX_pro_DASH_L_LPAREN_e_RPAREN_'
p4967
(lp4968
g14
asS'EX_malthp_LPAREN_e_RPAREN_'
p4969
(lp4970
g14
asS'DHPS2'
p4971
(lp4972
S'SCO3398'
p4973
aS'SCO5141'
p4974
asS'FACOAE60'
p4975
(lp4976
S'SCO1153'
p4977
aS'SCO2773'
p4978
asS'ACACT4r'
p4979
(lp4980
S'SCO6788'
p4981
aS'SCO1324'
p4982
aS'SCO4502'
p4983
aS'SCO6027'
p4984
asS'3OAS150'
p4985
(lp4986
S'SCO0548'
p4987
aS'SCO2390'
p4988
aS'SCO1266'
p4989
asS'METSOXR2'
p4990
(lp4991
(lp4992
S'SCO0885'
p4993
aS'SCO6061'
p4994
aaS'SCO3889'
p4995
aS'SCO5419'
p4996
aS'SCO5438'
p4997
asS'TMDK1'
p4998
(lp4999
S'SCO5845'
p5000
asS'METSOXR1'
p5001
(lp5002
(lp5003
S'SCO0885'
p5004
aS'SCO4956'
p5005
aaS'SCO3889'
p5006
aS'SCO5419'
p5007
aS'SCO5438'
p5008
asS'SBTabc'
p5009
(lp5010
(lp5011
S'SCO1898'
p5012
aS'SCO1899'
p5013
aS'SCO1900'
p5014
aS'SCO4240'
p5015
aasS'G1PACT'
p5016
(lp5017
S'SCO3122'
p5018
asS'DATPHs'
p5019
(lp5020
S's0001'
p5021
asS'FACOAE80'
p5022
(lp5023
S'SCO1153'
p5024
aS'SCO2773'
p5025
asS'PCOATA'
p5026
(lp5027
S'SCO1271'
p5028
aS'SCO2388'
p5029
a(lp5030
S'SCO2389'
p5031
aS'SCO6564'
p5032
aaS'SCO0549'
p5033
aS'SCO1267'
p5034
aS'SCO1272'
p5035
asS'TRE6PP'
p5036
(lp5037
S'SCO4288'
p5038
asS'TRE6PS'
p5039
(lp5040
S'SCO4290'
p5041
asS'THDPS'
p5042
(lp5043
S'SCO1916'
p5044
asS'PPNCL2'
p5045
(lp5046
S'SCO1477'
p5047
asS'PINOSi140'
p5048
(lp5049
S'SCO1527'
p5050
asS'TMDPP'
p5051
(lp5052
S'SCO4890'
p5053
asS'DHPPDA2'
p5054
(lp5055
S'SCO2688'
p5056
asS'CPC2MT'
p5057
(lp5058
S'SCO1853'
p5059
asS'GUACYC'
p5060
(lp5061
S'SCO4928'
p5062
asS'3NTD4e'
p5063
(lp5064
S'SCO2015'
p5065
asS'4HTHRS'
p5066
(lp5067
S'SCO4293'
p5068
aS'SCO5355'
p5069
asS'UPPDC1'
p5070
(lp5071
S'SCO6031'
p5072
asS'MMSAD4'
p5073
(lp5074
S'SCO2726'
p5075
asS'PTA2'
p5076
(lp5077
S'SCO5425'
p5078
asS'APRAUR'
p5079
(lp5080
S'SCO2688'
p5081
aS'SCO6058'
p5082
aS'SCO4106'
p5083
asS'DCYTt2'
p5084
(lp5085
g14
asS'AHMMPS'
p5086
(lp5087
S'SCO3928'
p5088
asS'GLBRAN2'
p5089
(lp5090
S'SCO5440'
p5091
aS'SCO7332'
p5092
asS'LIPOCT'
p5093
(lp5094
S'SCO2193'
p5095
asS'3OARi170'
p5096
(lp5097
S'SCO1815'
p5098
aS'SCO1345'
p5099
aS'SCO1346'
p5100
aS'SCO4501'
p5101
aS'SCO1831'
p5102
aS'SCO4681'
p5103
aS'SCO0330'
p5104
asS'PGSAi160'
p5105
(lp5106
S'SCO5753'
p5107
asS'VANK'
p5108
(lp5109
g14
asS'MELTGH'
p5110
(lp5111
S'SCO0274'
p5112
aS'SCO0541'
p5113
asS'EAR80x'
p5114
(lp5115
S'SCO1814'
p5116
asS'OCTTT'
p5117
(lp5118
S'SCO4583'
p5119
asS'SULabc'
p5120
(lp5121
(lp5122
S'SCO3704'
p5123
aS'SCO3705'
p5124
aS'SCO3706'
p5125
aasS'3OAS50'
p5126
(lp5127
S'SCO0548'
p5128
aS'SCO2390'
p5129
aS'SCO1266'
p5130
asS'GPDDA3e'
p5131
(lp5132
S'SCO1565'
p5133
aS'SCO1968'
p5134
aS'SCO7550'
p5135
asS'PGSAai170'
p5136
(lp5137
S'SCO5753'
p5138
asS'3OAS161'
p5139
(lp5140
S'SCO0548'
p5141
aS'SCO2390'
p5142
aS'SCO1266'
p5143
asS'PMANM'
p5144
(lp5145
S'SCO3028'
p5146
aS'SCO4916'
p5147
aS'SCO1388'
p5148
asS'3HADi80'
p5149
(lp5150
g14
asS'3HAD90'
p5151
(lp5152
g14
asS'MDH'
p5153
(lp5154
S'SCO4827'
p5155
asS'LYSt2'
p5156
(lp5157
S'SCO2914'
p5158
asS'EX_gly_LPAREN_e_RPAREN_'
p5159
(lp5160
g14
asS'SHK3Dr'
p5161
(lp5162
S'SCO1498'
p5163
asS'TYRTA'
p5164
(lp5165
S'SCO1859'
p5166
aS'SCO2053'
p5167
aS'SCO3944'
p5168
aS'SCO4645'
p5169
aS'SCO3658'
p5170
asS'ASPK'
p5171
(lp5172
S'SCO3615'
p5173
asS'EX_5dglcn_LPAREN_e_RPAREN_'
p5174
(lp5175
g14
asS'PTAr'
p5176
(lp5177
S'SCO5425'
p5178
asS'DHFS'
p5179
(lp5180
S'SCO2614'
p5181
asS'NTD2e'
p5182
(lp5183
S'SCO4152'
p5184
asS'EX_dcmp_LPAREN_e_RPAREN_'
p5185
(lp5186
g14
asS'CYSTRS'
p5187
(lp5188
S'SCO4235'
p5189
asS'DHNANT4'
p5190
(lp5191
g14
asS'GTPCII2'
p5192
(lp5193
S'SCO1441'
p5194
aS'SCO2687'
p5195
asS'RIBabc'
p5196
(lp5197
(lp5198
S'SCO2746'
p5199
aS'SCO2747'
p5200
aS'SCO2749'
p5201
aa(lp5202
S'SCO6257'
p5203
aS'SCO6258'
p5204
aS'SCO6259'
p5205
aasS'ALCD2y'
p5206
(lp5207
S'SCO4945'
p5208
aS'SCO4271'
p5209
asS'ABUTt2'
p5210
(lp5211
S'SCO2628'
p5212
aS'SCO2631'
p5213
asS'ADK3i'
p5214
(lp5215
S'SCO4723'
p5216
asS'GLNabc'
p5217
(lp5218
(lp5219
S'SCO5258'
p5220
aS'SCO5259'
p5221
aS'SCO5260'
p5222
aasS'EX_for_LPAREN_e_RPAREN_'
p5223
(lp5224
g14
asS'DURIt2'
p5225
(lp5226
g14
asS'HSTPT'
p5227
(lp5228
S'SCO1859'
p5229
aS'SCO2053'
p5230
aS'SCO3944'
p5231
asS'EX_gal_LPAREN_e_RPAREN_'
p5232
(lp5233
g14
asS'MHPGLUT'
p5234
(lp5235
S'SCO0985'
p5236
asS'FADRx2'
p5237
(lp5238
S'SCO6102'
p5239
asS'MEPCT'
p5240
(lp5241
S'SCO4233'
p5242
asS'EX_ade_LPAREN_e_RPAREN_'
p5243
(lp5244
g14
asS'CHORM'
p5245
(lp5246
S'SCO2019'
p5247
aS'SCO1762'
p5248
asS'DHNPTE'
p5249
(lp5250
S'SCO3400'
p5251
asS'EAR180x'
p5252
(lp5253
S'SCO1814'
p5254
asS'EAR180y'
p5255
(lp5256
S'SCO1814'
p5257
asS'EX_glcn_LPAREN_e_RPAREN_'
p5258
(lp5259
g14
asS'EX_h2s_LPAREN_e_RPAREN_'
p5260
(lp5261
g14
asS'EX_csn_LPAREN_e_RPAREN_'
p5262
(lp5263
g14
asS'VALDxi'
p5264
(lp5265
S'SCO4089'
p5266
asS'ADPRDP'
p5267
(lp5268
S'SCO1775'
p5269
asS'3HAD70'
p5270
(lp5271
g14
asS'APHi160'
p5272
(lp5273
S'SCO5576'
p5274
asS'ACOATA'
p5275
(lp5276
S'SCO1271'
p5277
aS'SCO2388'
p5278
a(lp5279
S'SCO2389'
p5280
aS'SCO6564'
p5281
aaS'SCO0549'
p5282
aS'SCO1267'
p5283
aS'SCO1272'
p5284
asS'SUCOAS'
p5285
(lp5286
(lp5287
S'SCO4808'
p5288
aS'SCO4809'
p5289
aa(lp5290
S'SCO6585'
p5291
aS'SCO6586'
p5292
aasS'CHORS'
p5293
(lp5294
S'SCO1496'
p5295
asS'SHCHCC'
p5296
(lp5297
S'SCO1858'
p5298
asS'EX_maltttr_LPAREN_e_RPAREN_'
p5299
(lp5300
g14
asS'CPC4MT'
p5301
(lp5302
S'SCO1855'
p5303
asS'EAR50y'
p5304
(lp5305
S'SCO1814'
p5306
asS'EAR50x'
p5307
(lp5308
S'SCO1814'
p5309
asS'EX_dump_LPAREN_e_RPAREN_'
p5310
(lp5311
g14
asS'ORPT'
p5312
(lp5313
S'SCO3650'
p5314
asS'CYSt'
p5315
(lp5316
S'SCO2756'
p5317
asS'ATPPRT'
p5318
(lp5319
S'SCO1438'
p5320
asS'EX_o2_LPAREN_e_RPAREN_'
p5321
(lp5322
g14
asS'TRPt2r'
p5323
(lp5324
S'SCO2914'
p5325
asS'PRAMPC'
p5326
(lp5327
S'SCO2044'
p5328
asS'CYSS'
p5329
(lp5330
S'SCO0992'
p5331
aS'SCO1028'
p5332
aS'SCO2910'
p5333
asS'3OASi120'
p5334
(lp5335
S'SCO0548'
p5336
aS'SCO2390'
p5337
aS'SCO1266'
p5338
asS'EX_acser_LPAREN_e_RPAREN_'
p5339
(lp5340
g14
asS'ANHMK'
p5341
(lp5342
S'SCO7595'
p5343
asS'FEOXAMBUt'
p5344
(lp5345
g14
asS'GLYALDDr'
p5346
(lp5347
S'SCO1174'
p5348
aS'SCO1706'
p5349
aS'SCO3420'
p5350
aS'SCO4913'
p5351
aS'SCO5679'
p5352
asS'UGLYCH'
p5353
(lp5354
g14
asS'ARAI'
p5355
(lp5356
g14
asS'PROt4'
p5357
(lp5358
S'SCO5229'
p5359
asS'DM_ECTOINE'
p5360
(lp5361
g14
asS'MECDPS'
p5362
(lp5363
S'SCO4234'
p5364
asS'GAL6PI'
p5365
(lp5366
S'SCO5849'
p5367
asS'AACOATi'
p5368
(lp5369
S'SCO1393'
p5370
asS'XYLTO'
p5371
(lp5372
S'SCO6147'
p5373
asS'3OAR161'
p5374
(lp5375
S'SCO1815'
p5376
aS'SCO1345'
p5377
aS'SCO1346'
p5378
aS'SCO4501'
p5379
aS'SCO1831'
p5380
aS'SCO4681'
p5381
aS'SCO0330'
p5382
asS'3OAR160'
p5383
(lp5384
S'SCO1815'
p5385
aS'SCO1345'
p5386
aS'SCO1346'
p5387
aS'SCO4501'
p5388
aS'SCO1831'
p5389
aS'SCO4681'
p5390
aS'SCO0330'
p5391
asS'IMPD'
p5392
(lp5393
(lp5394
S'SCO4770'
p5395
aS'SCO4771'
p5396
aaS'SCO1461'
p5397
asS'CLPNSII120'
p5398
(lp5399
S'SCO1389'
p5400
asS'HXPRT'
p5401
(lp5402
S'SCO3405'
p5403
asS'IBCOATA'
p5404
(lp5405
S'SCO1271'
p5406
aS'SCO2388'
p5407
a(lp5408
S'SCO2389'
p5409
aS'SCO6564'
p5410
aaS'SCO0549'
p5411
aS'SCO1267'
p5412
aS'SCO1272'
p5413
asS'DURIPP'
p5414
(lp5415
S'SCO4890'
p5416
asS'APCS'
p5417
(lp5418
S'SCO3655'
p5419
aS'SCO2455'
p5420
asS'EARi180x'
p5421
(lp5422
S'SCO1814'
p5423
asS'EARi180y'
p5424
(lp5425
S'SCO1814'
p5426
asS'PSDi160'
p5427
(lp5428
S'SCO6468'
p5429
asS'EX_imp_LPAREN_e_RPAREN_'
p5430
(lp5431
g14
asS'DAPDC'
p5432
(lp5433
S'SCO5353'
p5434
aS'SCO6438'
p5435
asS'3OAS140'
p5436
(lp5437
S'SCO0548'
p5438
aS'SCO2390'
p5439
aS'SCO1266'
p5440
asS'3OAS141'
p5441
(lp5442
S'SCO0548'
p5443
aS'SCO2390'
p5444
aS'SCO1266'
p5445
asS'SPMS'
p5446
(lp5447
S'SCO3655'
p5448
aS'SCO2455'
p5449
asS'MELIBt2'
p5450
(lp5451
g14
asS'ASPCT'
p5452
(lp5453
S'SCO1487'
p5454
asS'XAND'
p5455
(lp5456
(lp5457
S'SCO4971'
p5458
aS'SCO4972'
p5459
aa(lp5460
S'SCO0690'
p5461
aS'SCO0691'
p5462
aasS'DRIBt'
p5463
(lp5464
g14
asS'NTP3'
p5465
(lp5466
S'SCO6149'
p5467
asS'NTP1'
p5468
(lp5469
S'SCO6149'
p5470
asS'EX_urea_LPAREN_e_RPAREN_'
p5471
(lp5472
g14
asS'EX_glyc_DASH_R_LPAREN_e_RPAREN_'
p5473
(lp5474
g14
asS'FUM'
p5475
(lp5476
S'SCO5042'
p5477
aS'SCO5044'
p5478
asS'DAPE'
p5479
(lp5480
S'SCO5793'
p5481
asS'PKT'
p5482
(lp5483
S'SCO0617'
p5484
asS'ALDD19x'
p5485
(lp5486
S'SCO1612'
p5487
asS'ACt4'
p5488
(lp5489
S'SCO1822'
p5490
asS'FACOAL100'
p5491
(lp5492
S'SCO6196'
p5493
aS'SCO6195'
p5494
aS'SCO2131'
p5495
aS'SCO2444'
p5496
aS'SCO2561'
p5497
aS'SCO2720'
p5498
aS'SCO3436'
p5499
aS'SCO4006'
p5500
aS'SCO5983'
p5501
aS'SCO6552'
p5502
aS'SCO6968'
p5503
aS'SCO7244'
p5504
asS'FMNAT'
p5505
(lp5506
S'SCO5711'
p5507
asS'ACPSact'
p5508
(lp5509
S'SCO4744'
p5510
asS'EX_cmp_LPAREN_e_RPAREN_'
p5511
(lp5512
g14
asS'EX_uri_LPAREN_e_RPAREN_'
p5513
(lp5514
g14
asS'PAPAi140'
p5515
(lp5516
g14
asS'EX_dcyt_LPAREN_e_RPAREN_'
p5517
(lp5518
g14
asS'ACPS1'
p5519
(lp5520
S'SCO4744'
p5521
asS'IPPMIa'
p5522
(lp5523
(lp5524
S'SCO5553'
p5525
aS'SCO5554'
p5526
aasS'PC17M'
p5527
(lp5528
S'SCO1857'
p5529
asS'EARi80x'
p5530
(lp5531
S'SCO1814'
p5532
asS'ACACT5r'
p5533
(lp5534
S'SCO6788'
p5535
aS'SCO1324'
p5536
aS'SCO4502'
p5537
aS'SCO6027'
p5538
asS'EX_pnto_DASH_R_LPAREN_e_RPAREN_'
p5539
(lp5540
g14
asS'3HAD180'
p5541
(lp5542
g14
asS'3HAD181'
p5543
(lp5544
g14
asS'EX_pyr_LPAREN_e_RPAREN_'
p5545
(lp5546
g14
asS'G3PCT'
p5547
(lp5548
g14
asS'EX_mnl_LPAREN_e_RPAREN_'
p5549
(lp5550
g14
asS'PGSAi150'
p5551
(lp5552
S'SCO5753'
p5553
asS'3OARi160'
p5554
(lp5555
S'SCO1815'
p5556
aS'SCO1345'
p5557
aS'SCO1346'
p5558
aS'SCO4501'
p5559
aS'SCO1831'
p5560
aS'SCO4681'
p5561
aS'SCO0330'
p5562
asS'HIBD'
p5563
(lp5564
S'SCO0907'
p5565
asS'SERt2r'
p5566
(lp5567
g14
asS'PGSA120'
p5568
(lp5569
S'SCO5753'
p5570
asS'T2DECAI'
p5571
(lp5572
g14
asS'ASR'
p5573
(lp5574
S'SCO2206'
p5575
aS'SCO6835'
p5576
asS'ALLTAH'
p5577
(lp5578
S'SCO6248'
p5579
asS'CLPNS120'
p5580
(lp5581
S'SCO7081'
p5582
asS'EX_ferricoelichelin_LPAREN_e_RPAREN_'
p5583
(lp5584
g14
asS'DGI'
p5585
(lp5586
S'SCO6976'
p5587
asS'ALCD19'
p5588
(lp5589
S'SCO0199'
p5590
aS'SCO0259'
p5591
aS'SCO5262'
p5592
aS'SCO7362'
p5593
asS'PC6YM'
p5594
(lp5595
S'SCO1555'
p5596
aS'SCO1856'
p5597
asS'EX_glyc3p_LPAREN_e_RPAREN_'
p5598
(lp5599
g14
asS'THD2'
p5600
(lp5601
(lp5602
S'SCO7622'
p5603
aS'SCO7623'
p5604
aasS'TDPDRE'
p5605
(lp5606
S'SCO0400'
p5607
asS'3OARai130'
p5608
(lp5609
S'SCO1815'
p5610
aS'SCO1345'
p5611
aS'SCO1346'
p5612
aS'SCO4501'
p5613
aS'SCO1831'
p5614
aS'SCO4681'
p5615
aS'SCO0330'
p5616
asS'IGPDH'
p5617
(lp5618
S'SCO2052'
p5619
asS'TDPDRR'
p5620
(lp5621
S'SCO7194'
p5622
asS'THMabc'
p5623
(lp5624
(lp5625
S'SCO5646'
p5626
aS'SCO5647'
p5627
aS'SCO5648'
p5628
aasS'PPCOAC'
p5629
(lp5630
(lp5631
S'SCO2776'
p5632
aS'SCO2777'
p5633
aa(lp5634
S'SCO4380'
p5635
aS'SCO4381'
p5636
aaS'SCO4921'
p5637
a(lp5638
S'SCO4925'
p5639
aS'SCO4926'
p5640
aS'SCO6271'
p5641
aasS'PSSA120'
p5642
(lp5643
S'SCO6467'
p5644
asS'CLPNSIIai170'
p5645
(lp5646
S'SCO1389'
p5647
asS'PGAMT'
p5648
(lp5649
S'SCO4736'
p5650
asS'GLCt2'
p5651
(lp5652
S'SCO5578'
p5653
aS'SCO7153'
p5654
asS'ACPPAT181'
p5655
(lp5656
g14
asS'ACPPAT180'
p5657
(lp5658
g14
asS'AGM4PCP'
p5659
(lp5660
S'SCO6489'
p5661
asS'EX_no2_LPAREN_e_RPAREN_'
p5662
(lp5663
g14
asS'TAGSi180'
p5664
(lp5665
g14
asS'EX_xmp_LPAREN_e_RPAREN_'
p5666
(lp5667
g14
asS'CYTD'
p5668
(lp5669
S'SCO4889'
p5670
aS'SCO5680'
p5671
asS'ACPPATi180'
p5672
(lp5673
g14
asS'EX_cu2_LPAREN_e_RPAREN_'
p5674
(lp5675
g14
asS'NDPK8'
p5676
(lp5677
S'SCO2612'
p5678
asS'NDPK9'
p5679
(lp5680
S'SCO2612'
p5681
asS'NDPK2'
p5682
(lp5683
S'SCO2612'
p5684
asS'NDPK3'
p5685
(lp5686
S'SCO2612'
p5687
asS'NDPK1'
p5688
(lp5689
S'SCO2612'
p5690
asS'NDPK6'
p5691
(lp5692
S'SCO2612'
p5693
asS'NDPK7'
p5694
(lp5695
S'SCO2612'
p5696
asS'NDPK4'
p5697
(lp5698
S'SCO2612'
p5699
asS'NDPK5'
p5700
(lp5701
S'SCO2612'
p5702
asS'2OXOADOX'
p5703
(lp5704
(lp5705
S'SCO2181'
p5706
aS'SCO5281'
p5707
aa(lp5708
S'SCO0884'
p5709
aS'SCO7123'
p5710
aaS'SCO2180'
p5711
aS'SCO4919'
p5712
asS'SO4t2'
p5713
(lp5714
S'SCO3276'
p5715
asS'3OAR50'
p5716
(lp5717
S'SCO1815'
p5718
aS'SCO1345'
p5719
aS'SCO1346'
p5720
aS'SCO4501'
p5721
aS'SCO1831'
p5722
aS'SCO4681'
p5723
aS'SCO0330'
p5724
asS'TMDSf'
p5725
(lp5726
S'SCO5743'
p5727
asS'SPMDt3'
p5728
(lp5729
S'SCO1918'
p5730
asS'ALLTAMH'
p5731
(lp5732
S'SCO3072'
p5733
asS'3HAD40'
p5734
(lp5735
g14
asS'NTD3e'
p5736
(lp5737
S'SCO4152'
p5738
asS'BWCOS'
p5739
(lp5740
S'SCO3181'
p5741
aS'SCO3827'
p5742
asS'LACZ'
p5743
(lp5744
S'SCO0766'
p5745
aS'SCO3479'
p5746
aS'SCO5689'
p5747
aS'SCO6347'
p5748
aS'SCO6457'
p5749
aS'SCO7407'
p5750
asS'IPDPS'
p5751
(lp5752
S'SCO5058'
p5753
asS'SULRi'
p5754
(lp5755
S'SCO6102'
p5756
asS'HISt2r'
p5757
(lp5758
S'SCO2914'
p5759
asS'EX_met_DASH_L_LPAREN_e_RPAREN_'
p5760
(lp5761
g14
asS'GAPD'
p5762
(lp5763
S'SCO1947'
p5764
aS'SCO7040'
p5765
aS'SCO7511'
p5766
asS'3OASi130'
p5767
(lp5768
S'SCO0548'
p5769
aS'SCO2390'
p5770
aS'SCO1266'
p5771
asS'CYO2a'
p5772
(lp5773
(lp5774
S'SCO2149'
p5775
aS'SCO2150'
p5776
aS'SCO7236'
p5777
aaS'SCO2148'
p5778
aS'SCO7120'
p5779
asS'CYO2b'
p5780
(lp5781
(lp5782
S'SCO1934'
p5783
aS'SCO2156'
p5784
aS'SCO7234'
p5785
aa(lp5786
S'SCO1930'
p5787
aS'SCO2151'
p5788
aS'SCO2155'
p5789
aasS'EARi100y'
p5790
(lp5791
S'SCO1814'
p5792
asS'EAR70y'
p5793
(lp5794
S'SCO1814'
p5795
asS'EAR40x'
p5796
(lp5797
S'SCO1814'
p5798
asS'EAR40y'
p5799
(lp5800
S'SCO1814'
p5801
asS'EX_dtmp_LPAREN_e_RPAREN_'
p5802
(lp5803
g14
asS'XTSNt2r'
p5804
(lp5805
g14
asS'GLNLASE'
p5806
(lp5807
S'SCO0524'
p5808
asS'3OAR170'
p5809
(lp5810
S'SCO1815'
p5811
aS'SCO1345'
p5812
aS'SCO1346'
p5813
aS'SCO4501'
p5814
aS'SCO1831'
p5815
aS'SCO4681'
p5816
aS'SCO0330'
p5817
asS'THRD_L'
p5818
(lp5819
S'SCO0821'
p5820
aS'SCO4962'
p5821
asS'ASNt2r'
p5822
(lp5823
S'SCO6734'
p5824
asS'EX_23camp_LPAREN_e_RPAREN_'
p5825
(lp5826
g14
asS'CLPNSIIi160'
p5827
(lp5828
S'SCO1389'
p5829
asS'FDH'
p5830
(lp5831
S'SCO6561'
p5832
asS'23PDE2e'
p5833
(lp5834
S'SCO2015'
p5835
asS'EX_adn_LPAREN_e_RPAREN_'
p5836
(lp5837
g14
asS'GALKr'
p5838
(lp5839
S'SCO3136'
p5840
asS'3OAS170'
p5841
(lp5842
S'SCO0548'
p5843
aS'SCO2390'
p5844
aS'SCO1266'
p5845
asS'MALT'
p5846
(lp5847
S'SCO1394'
p5848
aS'SCO2228'
p5849
aS'SCO3780'
p5850
aS'SCO7010'
p5851
asS'ACACT6r'
p5852
(lp5853
S'SCO6788'
p5854
aS'SCO1324'
p5855
aS'SCO4502'
p5856
aS'SCO6027'
p5857
asS'MALS'
p5858
(lp5859
S'SCO0983'
p5860
aS'SCO6243'
p5861
asS'PC'
p5862
(lp5863
S'SCO0546'
p5864
asS'3HADai130'
p5865
(lp5866
g14
asS'ADCPS2'
p5867
(lp5868
S'SCO1847'
p5869
asS'EX_lys_DASH_L_LPAREN_e_RPAREN_'
p5870
(lp5871
g14
asS'ADEt2r'
p5872
(lp5873
S'SCO6212'
p5874
aS'SCO6214'
p5875
aS'SCO4334'
p5876
aS'SCO6173'
p5877
asS'TAGO'
p5878
(lp5879
g14
asS'LYXt2'
p5880
(lp5881
g14
asS'PTRCTA'
p5882
(lp5883
S'SCO1284'
p5884
asS'EX_glc_LPAREN_e_RPAREN_'
p5885
(lp5886
g14
asS'N2Ot'
p5887
(lp5888
S's0001'
p5889
asS'ECOAH8'
p5890
(lp5891
S'SCO6732'
p5892
aS'SCO4384'
p5893
asS'ECOAH6'
p5894
(lp5895
S'SCO6732'
p5896
aS'SCO4384'
p5897
asS'ECOAH7'
p5898
(lp5899
S'SCO6732'
p5900
aS'SCO4384'
p5901
asS'ECOAH4'
p5902
(lp5903
S'SCO6732'
p5904
aS'SCO4384'
p5905
asS'ECOAH5'
p5906
(lp5907
S'SCO6732'
p5908
aS'SCO4384'
p5909
asS'ECOAH2'
p5910
(lp5911
S'SCO6732'
p5912
aS'SCO4384'
p5913
asS'ECOAH3'
p5914
(lp5915
S'SCO6732'
p5916
aS'SCO4384'
p5917
asS'ECOAH1'
p5918
(lp5919
S'SCO6732'
p5920
aS'SCO4384'
p5921
asS'RNDR4c'
p5922
(lp5923
(lp5924
S'SCO5225'
p5925
aS'SCO5226'
p5926
aaS'SCO5805'
p5927
asS'GRTT'
p5928
(lp5929
S'SCO0185'
p5930
aS'SCO0565'
p5931
aS'SCO5250'
p5932
aS'SCO6763'
p5933
asS'PAPAi150'
p5934
(lp5935
g14
asS'PNTK'
p5936
(lp5937
S'SCO3380'
p5938
aS'SCO4738'
p5939
asS'LIPOS'
p5940
(lp5941
S'SCO2194'
p5942
asS'ARGSL'
p5943
(lp5944
S'SCO1570'
p5945
asS'IMPC'
p5946
(lp5947
S'SCO4814'
p5948
asS'RAFGH'
p5949
(lp5950
S'SCO0274'
p5951
aS'SCO0541'
p5952
asS'EX_fum_LPAREN_e_RPAREN_'
p5953
(lp5954
g14
asS'BALAt2'
p5955
(lp5956
S'SCO2914'
p5957
asS'UAMAS'
p5958
(lp5959
S'SCO6060'
p5960
asS'ARGSS'
p5961
(lp5962
S'SCO7036'
p5963
asS'PHCHGS'
p5964
(lp5965
S's0001'
p5966
asS'3OARi150'
p5967
(lp5968
S'SCO1815'
p5969
aS'SCO1345'
p5970
aS'SCO1346'
p5971
aS'SCO4501'
p5972
aS'SCO1831'
p5973
aS'SCO4681'
p5974
aS'SCO0330'
p5975
asS'XYLK'
p5976
(lp5977
S'SCO1170'
p5978
aS'SCO2462'
p5979
asS'OIVD3'
p5980
(lp5981
(lp5982
S'SCO3816'
p5983
aS'SCO3817'
p5984
aa(lp5985
S'SCO3815'
p5986
aS'SCO3830'
p5987
aS'SCO3831'
p5988
aa(lp5989
S'SCO0884'
p5990
aS'SCO3829'
p5991
aaS'SCO2180'
p5992
aS'SCO4919'
p5993
asS'OIVD2'
p5994
(lp5995
(lp5996
S'SCO3816'
p5997
aS'SCO3817'
p5998
aa(lp5999
S'SCO3815'
p6000
aS'SCO3830'
p6001
aS'SCO3831'
p6002
aa(lp6003
S'SCO0884'
p6004
aS'SCO3829'
p6005
aaS'SCO2180'
p6006
aS'SCO4919'
p6007
asS'OIVD1'
p6008
(lp6009
(lp6010
S'SCO3816'
p6011
aS'SCO3817'
p6012
aa(lp6013
S'SCO3815'
p6014
aS'SCO3830'
p6015
aS'SCO3831'
p6016
aa(lp6017
S'SCO0884'
p6018
aS'SCO3829'
p6019
aaS'SCO2180'
p6020
aS'SCO4919'
p6021
asS'PGSAi140'
p6022
(lp6023
S'SCO5753'
p6024
asS'APG3PATi160'
p6025
(lp6026
g14
asS'3HAD150'
p6027
(lp6028
g14
asS'UGMDDS'
p6029
(lp6030
S'SCO2088'
p6031
asS'XYLTabc'
p6032
(lp6033
(lp6034
S'SCO1898'
p6035
aS'SCO1899'
p6036
aS'SCO1900'
p6037
aS'SCO4240'
p6038
aasS'GTPHs'
p6039
(lp6040
S's0001'
p6041
asS'ASNN'
p6042
(lp6043
g14
asS'EX_raffin_LPAREN_e_RPAREN_'
p6044
(lp6045
g14
asS'PGSAai150'
p6046
(lp6047
S'SCO5753'
p6048
asS'EARai110y'
p6049
(lp6050
S'SCO1814'
p6051
asS'EARai110x'
p6052
(lp6053
S'SCO1814'
p6054
asS'DM_RED'
p6055
(lp6056
g14
asS'APHai150'
p6057
(lp6058
S'SCO5576'
p6059
asS'GPDDA1e'
p6060
(lp6061
S'SCO1565'
p6062
aS'SCO1968'
p6063
aS'SCO7550'
p6064
asS'ACKr'
p6065
(lp6066
S'SCO5424'
p6067
asS'DHORTS'
p6068
(lp6069
S'SCO1486'
p6070
asS'EX_orn_LPAREN_e_RPAREN_'
p6071
(lp6072
g14
asS'EX_amp_LPAREN_e_RPAREN_'
p6073
(lp6074
g14
asS'PPC'
p6075
(lp6076
S'SCO3127'
p6077
asS'PPA'
p6078
(lp6079
S'SCO3409'
p6080
asS'OROTt2_2'
p6081
(lp6082
S'SCO5436'
p6083
asS'PRMICIi'
p6084
(lp6085
S'SCO2050'
p6086
asS'PPM'
p6087
(lp6088
S'SCO7443'
p6089
asS'EX_dgsn_LPAREN_e_RPAREN_'
p6090
(lp6091
g14
asS'ACPpdscda'
p6092
(lp6093
S'SCO0046'
p6094
asS'AKP1'
p6095
(lp6096
S'SCO0828'
p6097
aS'SCO1290'
p6098
aS'SCO2068'
p6099
aS'SCO2286'
p6100
asS'GPDDA4'
p6101
(lp6102
S'SCO1090'
p6103
aS'SCO1419'
p6104
aS'SCO3976'
p6105
aS'SCO5661'
p6106
asS'GPDDA5'
p6107
(lp6108
S'SCO1090'
p6109
aS'SCO1419'
p6110
aS'SCO3976'
p6111
aS'SCO5661'
p6112
asS'PRAGSr'
p6113
(lp6114
S'SCO4068'
p6115
asS'GPDDA1'
p6116
(lp6117
S'SCO1090'
p6118
aS'SCO1419'
p6119
aS'SCO3976'
p6120
aS'SCO5661'
p6121
asS'GPDDA2'
p6122
(lp6123
S'SCO1090'
p6124
aS'SCO1419'
p6125
aS'SCO3976'
p6126
aS'SCO5661'
p6127
asS'GPDDA3'
p6128
(lp6129
S'SCO1090'
p6130
aS'SCO1419'
p6131
aS'SCO3976'
p6132
aS'SCO5661'
p6133
asS'MTI'
p6134
(lp6135
S'SCO5442'
p6136
aS'SCO7334'
p6137
asS'ACPPATi170'
p6138
(lp6139
g14
asS'EX_ggl_LPAREN_e_RPAREN_'
p6140
(lp6141
g14
asS'SDPTA'
p6142
(lp6143
S'SCO1577'
p6144
asS'EX_ala_DASH_D_LPAREN_e_RPAREN_'
p6145
(lp6146
g14
asS'BPNT'
p6147
(lp6148
g14
asS'EX_maltpt_LPAREN_e_RPAREN_'
p6149
(lp6150
g14
asS'FMNRx'
p6151
(lp6152
S'SCO3295'
p6153
asS'CBLAT'
p6154
(lp6155
g14
asS'PROTRS'
p6156
(lp6157
S'SCO5699'
p6158
asS'GLYTRS'
p6159
(lp6160
S'SCO2504'
p6161
asS'MACACI'
p6162
(lp6163
g14
asS'CYSabc2'
p6164
(lp6165
S'SCO3947'
p6166
asS'IGAMD'
p6167
(lp6168
S'SCO5126'
p6169
aS'SCO4967'
p6170
asS'POX3'
p6171
(lp6172
S'SCO6155'
p6173
aS'SCO7412'
p6174
asS'3OAR40'
p6175
(lp6176
S'SCO1815'
p6177
aS'SCO1345'
p6178
aS'SCO1346'
p6179
aS'SCO4501'
p6180
aS'SCO1831'
p6181
aS'SCO4681'
p6182
aS'SCO0330'
p6183
asS'ARGabc'
p6184
(lp6185
(lp6186
S'SCO2828'
p6187
aS'SCO2829'
p6188
aS'SCO2830'
p6189
aS'SCO2831'
p6190
aasS'METabc'
p6191
(lp6192
(lp6193
S'SCO1557'
p6194
aS'SCO1558'
p6195
aS'SCO1559'
p6196
aasS'3HAD50'
p6197
(lp6198
g14
asS'3OARai90'
p6199
(lp6200
S'SCO1815'
p6201
aS'SCO1345'
p6202
aS'SCO1346'
p6203
aS'SCO4501'
p6204
aS'SCO1831'
p6205
aS'SCO4681'
p6206
aS'SCO0330'
p6207
asS'CLPNSi180'
p6208
(lp6209
S'SCO7081'
p6210
asS'INOSTt4'
p6211
(lp6212
S'SCO3139'
p6213
asS'NADS1'
p6214
(lp6215
S'SCO0506'
p6216
asS'NADS2'
p6217
(lp6218
S'SCO2238'
p6219
asS'GLCRt2r'
p6220
(lp6221
S'SCO2541'
p6222
asS'PPM2'
p6223
(lp6224
S'SCO7443'
p6225
asS'TREabc'
p6226
(lp6227
(lp6228
S'SCO1882'
p6229
aS'SCO1886'
p6230
aS'SCO1887'
p6231
aa(lp6232
S'SCO6601'
p6233
aS'SCO6602'
p6234
aS'SCO6603'
p6235
aasS'LEUTRS'
p6236
(lp6237
S'SCO2571'
p6238
asS'EX_asn_DASH_L_LPAREN_e_RPAREN_'
p6239
(lp6240
g14
asS'GLUR'
p6241
(lp6242
S'SCO1018'
p6243
asS'ALAabc'
p6244
(lp6245
(lp6246
S'SCO0706'
p6247
aS'SCO0707'
p6248
aS'SCO0708'
p6249
aS'SCO0709'
p6250
aS'SCO0710'
p6251
aa(lp6252
S'SCO2008'
p6253
aS'SCO2009'
p6254
aS'SCO2010'
p6255
aS'SCO2011'
p6256
aS'SCO2012'
p6257
aa(lp6258
S'SCO7181'
p6259
aS'SCO7182'
p6260
aS'SCO7183'
p6261
aS'SCO7184'
p6262
aS'SCO7185'
p6263
aasS'ALAALA'
p6264
(lp6265
S'SCO5560'
p6266
asS'GLUN'
p6267
(lp6268
S'SCO7049'
p6269
asS'METB1r'
p6270
(lp6271
S'SCO1294'
p6272
aS'SCO4958'
p6273
asS'3OARai110'
p6274
(lp6275
S'SCO1815'
p6276
aS'SCO1345'
p6277
aS'SCO1346'
p6278
aS'SCO4501'
p6279
aS'SCO1831'
p6280
aS'SCO4681'
p6281
aS'SCO0330'
p6282
asS'ARGD'
p6283
(lp6284
S'SCO0613'
p6285
aS'SCO5975'
p6286
asS'MALt3'
p6287
(lp6288
g14
asS'GK1i'
p6289
(lp6290
S'SCO1479'
p6291
asS'APHi180'
p6292
(lp6293
S'SCO5576'
p6294
asS'FEOXAMBexs'
p6295
(lp6296
S's0001'
p6297
asS'AGDC'
p6298
(lp6299
S'SCO4284'
p6300
asS'3OAR181'
p6301
(lp6302
S'SCO1815'
p6303
aS'SCO1345'
p6304
aS'SCO1346'
p6305
aS'SCO4501'
p6306
aS'SCO1831'
p6307
aS'SCO4681'
p6308
aS'SCO0330'
p6309
asS'3OAR180'
p6310
(lp6311
S'SCO1815'
p6312
aS'SCO1345'
p6313
aS'SCO1346'
p6314
aS'SCO4501'
p6315
aS'SCO1831'
p6316
aS'SCO4681'
p6317
aS'SCO0330'
p6318
asS'CLPNSIIi170'
p6319
(lp6320
S'SCO1389'
p6321
asS'SHKK'
p6322
(lp6323
S'SCO1495'
p6324
asS'BDH'
p6325
(lp6326
S'SCO1012'
p6327
asS'3OAS160'
p6328
(lp6329
S'SCO0548'
p6330
aS'SCO2390'
p6331
aS'SCO1266'
p6332
asS'ETHAAL'
p6333
(lp6334
g14
asS'MOBDabc'
p6335
(lp6336
(lp6337
S'SCO3704'
p6338
aS'SCO3705'
p6339
aS'SCO3706'
p6340
aasS'FACOAL80'
p6341
(lp6342
S'SCO6196'
p6343
aS'SCO6195'
p6344
aS'SCO2131'
p6345
aS'SCO2444'
p6346
aS'SCO2561'
p6347
aS'SCO2720'
p6348
aS'SCO3436'
p6349
aS'SCO4006'
p6350
aS'SCO5983'
p6351
aS'SCO6552'
p6352
aS'SCO6968'
p6353
aS'SCO7244'
p6354
asS'PSDi180'
p6355
(lp6356
S'SCO6468'
p6357
asS'ICYSDS'
p6358
(lp6359
S'SCO5486'
p6360
asS'34HPPOR'
p6361
(lp6362
S'SCO2927'
p6363
asS'ACACT10r'
p6364
(lp6365
S'SCO6788'
p6366
aS'SCO1324'
p6367
aS'SCO4502'
p6368
aS'SCO6027'
p6369
asS'AGPR'
p6370
(lp6371
S'SCO1580'
p6372
asS'NTRIR2x'
p6373
(lp6374
(lp6375
S'SCO2487'
p6376
aS'SCO2488'
p6377
aasS'PSD160'
p6378
(lp6379
S'SCO6468'
p6380
asS'PSD161'
p6381
(lp6382
S'SCO6468'
p6383
asS'MALTabc'
p6384
(lp6385
(lp6386
S'SCO2229'
p6387
aS'SCO2230'
p6388
aS'SCO2231'
p6389
aS'SCO4240'
p6390
aasS'ALAR'
p6391
(lp6392
S'SCO4745'
p6393
asS'DHDGLCD'
p6394
(lp6395
S'SCO1895'
p6396
aS'SCO2543'
p6397
asS'EX_tyr_DASH_L_LPAREN_e_RPAREN_'
p6398
(lp6399
g14
asS'GLUDC'
p6400
(lp6401
S'SCO3416'
p6402
asS'FACOAL120'
p6403
(lp6404
S'SCO6196'
p6405
aS'SCO6195'
p6406
aS'SCO2131'
p6407
aS'SCO2444'
p6408
aS'SCO2561'
p6409
aS'SCO2720'
p6410
aS'SCO3436'
p6411
aS'SCO4006'
p6412
aS'SCO5983'
p6413
aS'SCO6552'
p6414
aS'SCO6968'
p6415
aS'SCO7244'
p6416
asS'ASPt2_2'
p6417
(lp6418
S'SCO5436'
p6419
asS'4CMLCL'
p6420
(lp6421
S'SCO6339'
p6422
aS'SCO6697'
p6423
asS'VNTDM'
p6424
(lp6425
S'SCO6680'
p6426
asS'MI1PS'
p6427
(lp6428
S'SCO3243'
p6429
aS'SCO3899'
p6430
aS'SCO6573'
p6431
asS'MI1PP'
p6432
(lp6433
S'SCO5860'
p6434
asS'ILETRS'
p6435
(lp6436
S'SCO2076'
p6437
asS'EX_chol_LPAREN_e_RPAREN_'
p6438
(lp6439
g14
asS'DGSNt2'
p6440
(lp6441
g14
asS'THMDt2r'
p6442
(lp6443
g14
asS'IDONt2r'
p6444
(lp6445
S'SCO1680'
p6446
aS'SCO4991'
p6447
asS'CD2abc'
p6448
(lp6449
S'SCO6460'
p6450
asS'ACACT7r'
p6451
(lp6452
S'SCO6788'
p6453
aS'SCO1324'
p6454
aS'SCO4502'
p6455
aS'SCO6027'
p6456
asS'PINOSai170'
p6457
(lp6458
S'SCO1527'
p6459
asS'NTP5'
p6460
(lp6461
S'SCO6149'
p6462
asS'ACGAMK'
p6463
(lp6464
S'SCO4285'
p6465
asS'PENTT'
p6466
(lp6467
S'SCO4583'
p6468
asS'PAPA120'
p6469
(lp6470
g14
asS'EX_cobalt2_LPAREN_e_RPAREN_'
p6471
(lp6472
g14
asS'EX_xylt_LPAREN_e_RPAREN_'
p6473
(lp6474
g14
asS'CADVt'
p6475
(lp6476
g14
asS'EX_h2o_LPAREN_e_RPAREN_'
p6477
(lp6478
g14
asS'PGSA141'
p6479
(lp6480
S'SCO5753'
p6481
asS'PGSA140'
p6482
(lp6483
S'SCO5753'
p6484
asS'3OARi140'
p6485
(lp6486
S'SCO1815'
p6487
aS'SCO1345'
p6488
aS'SCO1346'
p6489
aS'SCO4501'
p6490
aS'SCO1831'
p6491
aS'SCO4681'
p6492
aS'SCO0330'
p6493
asS'NODOx'
p6494
(lp6495
S'SCO7428'
p6496
aS'SCO7094'
p6497
asS'APG3PATi170'
p6498
(lp6499
g14
asS'NNAM'
p6500
(lp6501
S'SCO2918'
p6502
asS'ASAD'
p6503
(lp6504
S'SCO2640'
p6505
aS'SCO3614'
p6506
asS'3HAD140'
p6507
(lp6508
g14
asS'3HAD141'
p6509
(lp6510
g14
asS'NNAT'
p6511
(lp6512
S'SCO2579'
p6513
asS'RZ5PP'
p6514
(lp6515
g14
asS'MDDCP2'
p6516
(lp6517
S'SCO3408'
p6518
aS'SCO3811'
p6519
aS'SCO4847'
p6520
aS'SCO6131'
p6521
asS'MDDCP3'
p6522
(lp6523
S'SCO3408'
p6524
aS'SCO3811'
p6525
aS'SCO4847'
p6526
aS'SCO6131'
p6527
asS'ADMDC'
p6528
(lp6529
g14
asS'MDDCP1'
p6530
(lp6531
S'SCO3408'
p6532
aS'SCO3811'
p6533
aS'SCO4847'
p6534
aS'SCO6131'
p6535
asS'BTNt2i'
p6536
(lp6537
g14
asS'MDDCP4'
p6538
(lp6539
S'SCO3408'
p6540
aS'SCO3811'
p6541
aS'SCO4847'
p6542
aS'SCO6131'
p6543
asS'MDDCP5'
p6544
(lp6545
S'SCO3408'
p6546
aS'SCO3811'
p6547
aS'SCO4847'
p6548
aS'SCO6131'
p6549
asS'IDOND'
p6550
(lp6551
S'SCO1682'
p6552
asS'UDPGD'
p6553
(lp6554
S'SCO3052'
p6555
asS'EX_orot_LPAREN_e_RPAREN_'
p6556
(lp6557
g14
asS'G6PDH2'
p6558
(lp6559
S'SCO1937'
p6560
aS'SCO6661'
p6561
asS'MTAN'
p6562
(lp6563
S'SCO5431'
p6564
asS'EX_mg2_LPAREN_e_RPAREN_'
p6565
(lp6566
g14
asS'ACPPATai150'
p6567
(lp6568
g14
asS'H2SO'
p6569
(lp6570
S's0001'
p6571
asS'EX_alltn_LPAREN_e_RPAREN_'
p6572
(lp6573
g14
asS'FESR'
p6574
(lp6575
g14
asS'OXDHCOAT'
p6576
(lp6577
(lp6578
S'SCO5144'
p6579
aS'SCO6701'
p6580
aaS'SCO6967'
p6581
aS'SCO3079'
p6582
aS'SCO6731'
p6583
asS'MTAP'
p6584
(lp6585
S'SCO3188'
p6586
asS'CYTBD2'
p6587
(lp6588
(lp6589
S'SCO3945'
p6590
aS'SCO3946'
p6591
aasS'2MBCOATA'
p6592
(lp6593
S'SCO1271'
p6594
aS'SCO2388'
p6595
a(lp6596
S'SCO2389'
p6597
aS'SCO6564'
p6598
aaS'SCO0549'
p6599
aS'SCO1267'
p6600
aS'SCO1272'
p6601
asS'MALTPTabc'
p6602
(lp6603
(lp6604
S'SCO2229'
p6605
aS'SCO2230'
p6606
aS'SCO2231'
p6607
aS'SCO4240'
p6608
aasS'EARi130y'
p6609
(lp6610
S'SCO1814'
p6611
asS'EARi130x'
p6612
(lp6613
S'SCO1814'
p6614
asS'GF6PTA'
p6615
(lp6616
S'SCO2789'
p6617
aS'SCO4740'
p6618
asS'3HBCOAHL'
p6619
(lp6620
g14
asS'GLYt4'
p6621
(lp6622
S'SCO7197'
p6623
asS'CDPMEK'
p6624
(lp6625
S'SCO3148'
p6626
as.